(dp1
S'files'
p2
(dp3
S'slingsby_quotes'
p4
(dp5
S'index'
p6
(dp7
S'html_filename'
p8
S'slingsby_quotes.html'
p9
sS'name'
p10
S'slingsby.quotes'
p11
sS'nums'
p12
ccopy_reg
_reconstructor
p13
(ccoverage.results
Numbers
p14
c__builtin__
object
p15
NtRp16
(dp17
S'n_files'
p18
I1
sS'n_branches'
p19
I0
sS'n_statements'
p20
I0
sS'n_excluded'
p21
I0
sS'n_partial_branches'
p22
I0
sS'n_missing'
p23
I0
sS'n_missing_branches'
p24
I0
sbssS'hash'
p25
S'\xe5P\x11)^\xf4>1D.\x0e\x0b\xa1\xf8[+'
p26
ssS'slingsby_general_time'
p27
(dp28
g6
(dp29
g8
S'slingsby_general_time.html'
p30
sg10
S'slingsby.general.time'
p31
sg12
g13
(g14
g15
NtRp32
(dp33
g18
I1
sg19
I6
sg20
I45
sg21
I0
sg22
I2
sg23
I34
sg24
I4
sbssg25
S'\xceS1&\xb7V\x06\x1b\x0f\xf72\x8a\xfb\xbc?\xaf'
p34
ssS'slingsby_archive'
p35
(dp36
g6
(dp37
g8
S'slingsby_archive.html'
p38
sg10
S'slingsby.archive'
p39
sg12
g13
(g14
g15
NtRp40
(dp41
g18
I1
sg19
I0
sg20
I0
sg21
I0
sg22
I0
sg23
I0
sg24
I0
sbssg25
S'\xe5P\x11)^\xf4>1D.\x0e\x0b\xa1\xf8[+'
p42
ssS'slingsby_gear'
p43
(dp44
g6
(dp45
g8
S'slingsby_gear.html'
p46
sg10
S'slingsby.gear'
p47
sg12
g13
(g14
g15
NtRp48
(dp49
g18
I1
sg19
I0
sg20
I0
sg21
I0
sg22
I0
sg23
I0
sg24
I0
sbssg25
S'\xe5P\x11)^\xf4>1D.\x0e\x0b\xa1\xf8[+'
p50
ssS'slingsby_settings'
p51
(dp52
g6
(dp53
g8
S'slingsby_settings.html'
p54
sg10
S'slingsby.settings'
p55
sg12
g13
(g14
g15
NtRp56
(dp57
g18
I1
sg19
I8
sg20
I57
sg21
I0
sg22
I1
sg23
I53
sg24
I3
sbssg25
S'\x10\xc4\xb6\x89\xcd\xb9\x04\xd2\xe4\xb8\xe1:\xa9\xc1\x0bL'
p58
ssS'slingsby_articles_migrations'
p59
(dp60
g6
(dp61
g8
S'slingsby_articles_migrations.html'
p62
sg10
S'slingsby.articles.migrations'
p63
sg12
g13
(g14
g15
NtRp64
(dp65
g18
I1
sg19
I0
sg20
I0
sg21
I0
sg22
I0
sg23
I0
sg24
I0
sbssg25
S'\x19g\xdfM\x1a\x019\xaf\x1baIeR\xe5u\xa7'
p66
ssS'slingsby_musikk_admin'
p67
(dp68
g6
(dp69
g8
S'slingsby_musikk_admin.html'
p70
sg10
S'slingsby.musikk.admin'
p71
sg12
g13
(g14
g15
NtRp72
(dp73
g18
I1
sg19
I4
sg20
I17
sg21
I0
sg22
I0
sg23
I17
sg24
I4
sbssg25
S'\x1bx\xb7j\x1c\x89\x87>o-\x9a\xa3)2\x9c`'
p74
ssS'slingsby_events_migrations'
p75
(dp76
g6
(dp77
g8
S'slingsby_events_migrations.html'
p78
sg10
S'slingsby.events.migrations'
p79
sg12
g13
(g14
g15
NtRp80
(dp81
g18
I1
sg19
I0
sg20
I0
sg21
I0
sg22
I0
sg23
I0
sg24
I0
sbssg25
S'\x19g\xdfM\x1a\x019\xaf\x1baIeR\xe5u\xa7'
p82
ssS'slingsby_musikk_views'
p83
(dp84
g6
(dp85
g8
S'slingsby_musikk_views.html'
p86
sg10
S'slingsby.musikk.views'
p87
sg12
g13
(g14
g15
NtRp88
(dp89
g18
I1
sg19
I20
sg20
I152
sg21
I0
sg22
I3
sg23
I26
sg24
I9
sbssg25
S'\xfa\x85\xb7o3\xb5\x92\x1f\xb0/~/\xb4\x1bv\xf1'
p90
ssS'slingsby_articles_migrations_0001_initial'
p91
(dp92
g6
(dp93
g8
S'slingsby_articles_migrations_0001_initial.html'
p94
sg10
S'slingsby.articles.migrations.0001_initial'
p95
sg12
g13
(g14
g15
NtRp96
(dp97
g18
I1
sg19
I0
sg20
I6
sg21
I0
sg22
I0
sg23
I0
sg24
I0
sbssg25
S'\n\xf9U\xc9!\xdbb\xbf\xb5Lbi62\xe3\x95'
p98
ssS'slingsby_quotes_views'
p99
(dp100
g6
(dp101
g8
S'slingsby_quotes_views.html'
p102
sg10
S'slingsby.quotes.views'
p103
sg12
g13
(g14
g15
NtRp104
(dp105
g18
I1
sg19
I10
sg20
I76
sg21
I0
sg22
I0
sg23
I48
sg24
I8
sbssg25
S'-\x1c\xd73\x81|/\xb3&Wq&\x18\xc7P\xe7'
p106
ssS'slingsby_general_templatetags_revved_static'
p107
(dp108
g6
(dp109
g8
S'slingsby_general_templatetags_revved_static.html'
p110
sg10
S'slingsby.general.templatetags.revved_static'
p111
sg12
g13
(g14
g15
NtRp112
(dp113
g18
I1
sg19
I2
sg20
I16
sg21
I0
sg22
I1
sg23
I10
sg24
I1
sbssg25
S'\xd6\xaf\xf2\xb12\x92\x85~\xcd\x16\xdf\x9aZBk#'
p114
ssS'slingsby_gear_admin'
p115
(dp116
g6
(dp117
g8
S'slingsby_gear_admin.html'
p118
sg10
S'slingsby.gear.admin'
p119
sg12
g13
(g14
g15
NtRp120
(dp121
g18
I1
sg19
I0
sg20
I4
sg21
I0
sg22
I0
sg23
I4
sg24
I0
sbssg25
S'\x03\xcfv\'H\x02r\xe4\x1ce\x91\xcd\xe0\xaf\xd9"'
p122
ssS'slingsby_general_context_processors'
p123
(dp124
g6
(dp125
g8
S'slingsby_general_context_processors.html'
p126
sg10
S'slingsby.general.context_processors'
p127
sg12
g13
(g14
g15
NtRp128
(dp129
g18
I1
sg19
I0
sg20
I15
sg21
I0
sg22
I0
sg23
I0
sg24
I0
sbssg25
S'\xf7Z\x1e\xfc\x00\x00F\xdb\xc8i\xce\xa6\x99\xbcI\xd5'
p130
ssS'slingsby_tasks_update_archive'
p131
(dp132
g6
(dp133
g8
S'slingsby_tasks_update_archive.html'
p134
sg10
S'slingsby.tasks.update_archive'
p135
sg12
g13
(g14
g15
NtRp136
(dp137
g18
I1
sg19
I16
sg20
I52
sg21
I0
sg22
I0
sg23
I44
sg24
I16
sbssg25
S'a\xd9\xd4/Z\x0c_k#_ ];\xad\x02\x9d'
p138
ssS'slingsby_gear_models'
p139
(dp140
g6
(dp141
g8
S'slingsby_gear_models.html'
p142
sg10
S'slingsby.gear.models'
p143
sg12
g13
(g14
g15
NtRp144
(dp145
g18
I1
sg19
I0
sg20
I21
sg21
I0
sg22
I0
sg23
I21
sg24
I0
sbssg25
S'\xbe\x89\x8a\x89\xed\xbb\x90\xe9\x1f\x18\xb82\xe6\xc7\xa6\xcf'
p146
ssS'slingsby_users_urls'
p147
(dp148
g6
(dp149
g8
S'slingsby_users_urls.html'
p150
sg10
S'slingsby.users.urls'
p151
sg12
g13
(g14
g15
NtRp152
(dp153
g18
I1
sg19
I0
sg20
I4
sg21
I0
sg22
I0
sg23
I0
sg24
I0
sbssg25
S'\x16\xabe)\x8b\x93\xb9\t\xe64\xe6\xc6\x12u\x08\xd3'
p154
ssS'slingsby_musikk_tasks'
p155
(dp156
g6
(dp157
g8
S'slingsby_musikk_tasks.html'
p158
sg10
S'slingsby.musikk.tasks'
p159
sg12
g13
(g14
g15
NtRp160
(dp161
g18
I1
sg19
I25
sg20
I151
sg21
I0
sg22
I5
sg23
I47
sg24
I5
sbssg25
S'1\xf9\xe2\x06\xf2^z\x8c\x9a\x80\xc3\x9b\xdd@qO'
p162
ssS'slingsby_quotes_migrations_0001_initial'
p163
(dp164
g6
(dp165
g8
S'slingsby_quotes_migrations_0001_initial.html'
p166
sg10
S'slingsby.quotes.migrations.0001_initial'
p167
sg12
g13
(g14
g15
NtRp168
(dp169
g18
I1
sg19
I0
sg20
I6
sg21
I0
sg22
I0
sg23
I0
sg24
I0
sbssg25
S'\x0eveI\xb0\xbfV<\x10\x8c\xcf\xe0c\xdd&\xd7'
p170
ssS'slingsby_articles_admin'
p171
(dp172
g6
(dp173
g8
S'slingsby_articles_admin.html'
p174
sg10
S'slingsby.articles.admin'
p175
sg12
g13
(g14
g15
NtRp176
(dp177
g18
I1
sg19
I4
sg20
I25
sg21
I0
sg22
I0
sg23
I25
sg24
I4
sbssg25
S'\xf6\xcf\xf9\x92U\x87G4\xea\xc9\xa6\x86\x1e\x08L\x8b'
p178
ssS'slingsby_quotes_context_processors'
p179
(dp180
g6
(dp181
g8
S'slingsby_quotes_context_processors.html'
p182
sg10
S'slingsby.quotes.context_processors'
p183
sg12
g13
(g14
g15
NtRp184
(dp185
g18
I1
sg19
I4
sg20
I16
sg21
I0
sg22
I1
sg23
I1
sg24
I1
sbssg25
S'h\xf0\x9a\xb7\xb8\xf8=~;a-\x94{\xcdf\xdb'
p186
ssS'slingsby_users'
p187
(dp188
g6
(dp189
g8
S'slingsby_users.html'
p190
sg10
S'slingsby.users'
p191
sg12
g13
(g14
g15
NtRp192
(dp193
g18
I1
sg19
I0
sg20
I9
sg21
I0
sg22
I0
sg23
I9
sg24
I0
sbssg25
S'\x98N\x04#\x8e\xe5\x93R\xff(\xbc\xb0\xc5\xc1M%'
p194
ssS'slingsby_instagram_admin'
p195
(dp196
g6
(dp197
g8
S'slingsby_instagram_admin.html'
p198
sg10
S'slingsby.instagram.admin'
p199
sg12
g13
(g14
g15
NtRp200
(dp201
g18
I1
sg19
I0
sg20
I4
sg21
I0
sg22
I0
sg23
I4
sg24
I0
sbssg25
S'<\xa7A\xd9-\x81\xdc\x1c\xd4\x17;4+\xc6\xd3\xdd'
p202
ssS'slingsby_general_admin'
p203
(dp204
g6
(dp205
g8
S'slingsby_general_admin.html'
p206
sg10
S'slingsby.general.admin'
p207
sg12
g13
(g14
g15
NtRp208
(dp209
g18
I1
sg19
I0
sg20
I3
sg21
I0
sg22
I0
sg23
I3
sg24
I0
sbssg25
S'\r\xcb\xd5u\xb1\xddd\xa3td\xc8\x17\x1e\xcdx '
p210
ssS'slingsby_quotes_migrations'
p211
(dp212
g6
(dp213
g8
S'slingsby_quotes_migrations.html'
p214
sg10
S'slingsby.quotes.migrations'
p215
sg12
g13
(g14
g15
NtRp216
(dp217
g18
I1
sg19
I0
sg20
I0
sg21
I0
sg22
I0
sg23
I0
sg24
I0
sbssg25
S'\x19g\xdfM\x1a\x019\xaf\x1baIeR\xe5u\xa7'
p218
ssS'slingsby_general_middleware'
p219
(dp220
g6
(dp221
g8
S'slingsby_general_middleware.html'
p222
sg10
S'slingsby.general.middleware'
p223
sg12
g13
(g14
g15
NtRp224
(dp225
g18
I1
sg19
I12
sg20
I24
sg21
I0
sg22
I0
sg23
I0
sg24
I0
sbssg25
S'\xbfc\xe6\xd0\x91*%\xc6\x04\x86\xafj\xed\xb1/5'
p226
ssS'slingsby_general_widgets'
p227
(dp228
g6
(dp229
g8
S'slingsby_general_widgets.html'
p230
sg10
S'slingsby.general.widgets'
p231
sg12
g13
(g14
g15
NtRp232
(dp233
g18
I1
sg19
I2
sg20
I19
sg21
I0
sg22
I0
sg23
I19
sg24
I2
sbssg25
S'\x19kf3\xf6jU\xf8\x16z\x055ux\xc4\xed'
p234
ssS'slingsby_musikk'
p235
(dp236
g6
(dp237
g8
S'slingsby_musikk.html'
p238
sg10
S'slingsby.musikk'
p239
sg12
g13
(g14
g15
NtRp240
(dp241
g18
I1
sg19
I0
sg20
I0
sg21
I0
sg22
I0
sg23
I0
sg24
I0
sbssg25
S'\xe5P\x11)^\xf4>1D.\x0e\x0b\xa1\xf8[+'
p242
ssS'slingsby_general_cache'
p243
(dp244
g6
(dp245
g8
S'slingsby_general_cache.html'
p246
sg10
S'slingsby.general.cache'
p247
sg12
g13
(g14
g15
NtRp248
(dp249
g18
I1
sg19
I12
sg20
I62
sg21
I0
sg22
I5
sg23
I7
sg24
I5
sbssg25
S'pJ\x03\x96\xc2\x87\xb4\xd5fi\xe9vqd\xbey'
p250
ssS'slingsby_articles_models'
p251
(dp252
g6
(dp253
g8
S'slingsby_articles_models.html'
p254
sg10
S'slingsby.articles.models'
p255
sg12
g13
(g14
g15
NtRp256
(dp257
g18
I1
sg19
I12
sg20
I104
sg21
I0
sg22
I2
sg23
I93
sg24
I10
sbssg25
S"k\x98\xc1&'\x86\xe5aC\xe46\x10,J\xde\xcc"
p258
ssS'slingsby_general_templatetags_disqus_identifier'
p259
(dp260
g6
(dp261
g8
S'slingsby_general_templatetags_disqus_identifier.html'
p262
sg10
S'slingsby.general.templatetags.disqus_identifier'
p263
sg12
g13
(g14
g15
NtRp264
(dp265
g18
I1
sg19
I0
sg20
I6
sg21
I0
sg22
I0
sg23
I0
sg24
I0
sbssg25
S' q4\xe4m\xf4\x12\xcf\x14\xd3`\x1a\x9e!&l'
p266
ssS'slingsby_musikk_migrations_0001_initial'
p267
(dp268
g6
(dp269
g8
S'slingsby_musikk_migrations_0001_initial.html'
p270
sg10
S'slingsby.musikk.migrations.0001_initial'
p271
sg12
g13
(g14
g15
NtRp272
(dp273
g18
I1
sg19
I0
sg20
I7
sg21
I0
sg22
I0
sg23
I0
sg24
I0
sbssg25
S'\xc8}]\x89X\x06L\xf6\x8d/\xa9zm\x0f\x1a$'
p274
ssS'slingsby_articles_urls'
p275
(dp276
g6
(dp277
g8
S'slingsby_articles_urls.html'
p278
sg10
S'slingsby.articles.urls'
p279
sg12
g13
(g14
g15
NtRp280
(dp281
g18
I1
sg19
I4
sg20
I7
sg21
I0
sg22
I2
sg23
I1
sg24
I2
sbssg25
S'\x9a\xa6\xfaE!\xbe\x8c6\xe0\xc2N\x85!vY\x0c'
p282
ssS'slingsby_articles_widgets'
p283
(dp284
g6
(dp285
g8
S'slingsby_articles_widgets.html'
p286
sg10
S'slingsby.articles.widgets'
p287
sg12
g13
(g14
g15
NtRp288
(dp289
g18
I1
sg19
I0
sg20
I8
sg21
I0
sg22
I0
sg23
I8
sg24
I0
sbssg25
S'\xdeZ>\xdfP\xe2\x13a\xed\x7f\x16\xc0\xcb\xf4\xe5h'
p290
ssS'slingsby_tasks'
p291
(dp292
g6
(dp293
g8
S'slingsby_tasks.html'
p294
sg10
S'slingsby.tasks'
p295
sg12
g13
(g14
g15
NtRp296
(dp297
g18
I1
sg19
I0
sg20
I0
sg21
I0
sg22
I0
sg23
I0
sg24
I0
sbssg25
S'\xe5P\x11)^\xf4>1D.\x0e\x0b\xa1\xf8[+'
p298
ssS'slingsby_instagram_urls'
p299
(dp300
g6
(dp301
g8
S'slingsby_instagram_urls.html'
p302
sg10
S'slingsby.instagram.urls'
p303
sg12
g13
(g14
g15
NtRp304
(dp305
g18
I1
sg19
I0
sg20
I3
sg21
I0
sg22
I0
sg23
I0
sg24
I0
sbssg25
S'\x17\x1f+\xe1\xffr\xda\\\x98\xbd\xf6\xe2\x821\xd4\xab'
p306
ssS'slingsby_musikk_urls'
p307
(dp308
g6
(dp309
g8
S'slingsby_musikk_urls.html'
p310
sg10
S'slingsby.musikk.urls'
p311
sg12
g13
(g14
g15
NtRp312
(dp313
g18
I1
sg19
I0
sg20
I5
sg21
I0
sg22
I0
sg23
I0
sg24
I0
sbssg25
S'\x1f\xafq/\n\xa7\x9d,FQ\xc8\xeb\x99BO\xcf'
p314
ssS'slingsby_tasks_urls'
p315
(dp316
g6
(dp317
g8
S'slingsby_tasks_urls.html'
p318
sg10
S'slingsby.tasks.urls'
p319
sg12
g13
(g14
g15
NtRp320
(dp321
g18
I1
sg19
I0
sg20
I2
sg21
I0
sg22
I0
sg23
I0
sg24
I0
sbssg25
S'\xd0\x9b\xe85:\x88\x8d\xd4\xfe5QA\x1e\xa3)\xdf'
p322
ssS'slingsby_events_models'
p323
(dp324
g6
(dp325
g8
S'slingsby_events_models.html'
p326
sg10
S'slingsby.events.models'
p327
sg12
g13
(g14
g15
NtRp328
(dp329
g18
I1
sg19
I32
sg20
I153
sg21
I0
sg22
I2
sg23
I147
sg24
I30
sbssg25
S'\xed\n<\xe7\x84\rf\x01\xce{\xba\xbb\xber\xd0\x82'
p330
ssS'slingsby_urls'
p331
(dp332
g6
(dp333
g8
S'slingsby_urls.html'
p334
sg10
S'slingsby.urls'
p335
sg12
g13
(g14
g15
NtRp336
(dp337
g18
I1
sg19
I8
sg20
I24
sg21
I0
sg22
I3
sg23
I5
sg24
I5
sbssg25
S'j\x003\xfa:P\xda%1\xe7\x0f\xd5[\xdc\x85^'
p338
ssS'slingsby_users_views'
p339
(dp340
g6
(dp341
g8
S'slingsby_users_views.html'
p342
sg10
S'slingsby.users.views'
p343
sg12
g13
(g14
g15
NtRp344
(dp345
g18
I1
sg19
I14
sg20
I63
sg21
I0
sg22
I4
sg23
I17
sg24
I10
sbssg25
S'\xcf(wl\xae\xa4\xd8\xd8\x16\xcc& \xbf\xfe\xe4\x08'
p346
ssS'slingsby_articles'
p347
(dp348
g6
(dp349
g8
S'slingsby_articles.html'
p350
sg10
S'slingsby.articles'
p351
sg12
g13
(g14
g15
NtRp352
(dp353
g18
I1
sg19
I0
sg20
I0
sg21
I0
sg22
I0
sg23
I0
sg24
I0
sbssg25
S'\xe5P\x11)^\xf4>1D.\x0e\x0b\xa1\xf8[+'
p354
ssS'slingsby_general_management'
p355
(dp356
g6
(dp357
g8
S'slingsby_general_management.html'
p358
sg10
S'slingsby.general.management'
p359
sg12
g13
(g14
g15
NtRp360
(dp361
g18
I1
sg19
I0
sg20
I0
sg21
I0
sg22
I0
sg23
I0
sg24
I0
sbssg25
S'\x19g\xdfM\x1a\x019\xaf\x1baIeR\xe5u\xa7'
p362
ssS'slingsby_instagram_tasks'
p363
(dp364
g6
(dp365
g8
S'slingsby_instagram_tasks.html'
p366
sg10
S'slingsby.instagram.tasks'
p367
sg12
g13
(g14
g15
NtRp368
(dp369
g18
I1
sg19
I8
sg20
I35
sg21
I0
sg22
I0
sg23
I16
sg24
I0
sbssg25
S'\xf1\xcdF\x89\x88\xd9\xe8\xc9\x9b]\xea2%\x951\xe8'
p370
ssS'slingsby_quotes_models'
p371
(dp372
g6
(dp373
g8
S'slingsby_quotes_models.html'
p374
sg10
S'slingsby.quotes.models'
p375
sg12
g13
(g14
g15
NtRp376
(dp377
g18
I1
sg19
I6
sg20
I32
sg21
I0
sg22
I0
sg23
I32
sg24
I6
sbssg25
S"$+!\xac\xe1'\xb6\x8a\x0f\xcbEj\x81\xe6=="
p378
ssS'slingsby_instagram_migrations'
p379
(dp380
g6
(dp381
g8
S'slingsby_instagram_migrations.html'
p382
sg10
S'slingsby.instagram.migrations'
p383
sg12
g13
(g14
g15
NtRp384
(dp385
g18
I1
sg19
I0
sg20
I0
sg21
I0
sg22
I0
sg23
I0
sg24
I0
sbssg25
S'\x19g\xdfM\x1a\x019\xaf\x1baIeR\xe5u\xa7'
p386
ssS'slingsby_archive_admin'
p387
(dp388
g6
(dp389
g8
S'slingsby_archive_admin.html'
p390
sg10
S'slingsby.archive.admin'
p391
sg12
g13
(g14
g15
NtRp392
(dp393
g18
I1
sg19
I0
sg20
I5
sg21
I0
sg22
I0
sg23
I5
sg24
I0
sbssg25
S'BG\xd1\xed\x15\x90\xdb\xcd)-\xcc\xdf-\x1a]n'
p394
ssS'slingsby_archive_urls'
p395
(dp396
g6
(dp397
g8
S'slingsby_archive_urls.html'
p398
sg10
S'slingsby.archive.urls'
p399
sg12
g13
(g14
g15
NtRp400
(dp401
g18
I1
sg19
I0
sg20
I3
sg21
I0
sg22
I0
sg23
I0
sg24
I0
sbssg25
S"\xb4\xf8NU'\x05s\xdc\xa9\x1f\xd6ne\xf6\x10`"
p402
ssS'slingsby_musikk_migrations'
p403
(dp404
g6
(dp405
g8
S'slingsby_musikk_migrations.html'
p406
sg10
S'slingsby.musikk.migrations'
p407
sg12
g13
(g14
g15
NtRp408
(dp409
g18
I1
sg19
I0
sg20
I0
sg21
I0
sg22
I0
sg23
I0
sg24
I0
sbssg25
S'\x19g\xdfM\x1a\x019\xaf\x1baIeR\xe5u\xa7'
p410
ssS'slingsby_general_templatetags'
p411
(dp412
g6
(dp413
g8
S'slingsby_general_templatetags.html'
p414
sg10
S'slingsby.general.templatetags'
p415
sg12
g13
(g14
g15
NtRp416
(dp417
g18
I1
sg19
I0
sg20
I0
sg21
I0
sg22
I0
sg23
I0
sg24
I0
sbssg25
S'\xe5P\x11)^\xf4>1D.\x0e\x0b\xa1\xf8[+'
p418
ssS'slingsby_quotes_urls'
p419
(dp420
g6
(dp421
g8
S'slingsby_quotes_urls.html'
p422
sg10
S'slingsby.quotes.urls'
p423
sg12
g13
(g14
g15
NtRp424
(dp425
g18
I1
sg19
I0
sg20
I4
sg21
I0
sg22
I0
sg23
I0
sg24
I0
sbssg25
S'\tY&\xc6\xbeY+)Cd\xba?\xb8\xb8m\xeb'
p426
ssS'slingsby_celery'
p427
(dp428
g6
(dp429
g8
S'slingsby_celery.html'
p430
sg10
S'slingsby.celery'
p431
sg12
g13
(g14
g15
NtRp432
(dp433
g18
I1
sg19
I2
sg20
I8
sg21
I0
sg22
I0
sg23
I8
sg24
I2
sbssg25
S'\xf0(e\x8evgPS\x9d\xc2\x0c+\x80a=\x82'
p434
ssS'slingsby_quotes_admin'
p435
(dp436
g6
(dp437
g8
S'slingsby_quotes_admin.html'
p438
sg10
S'slingsby.quotes.admin'
p439
sg12
g13
(g14
g15
NtRp440
(dp441
g18
I1
sg19
I0
sg20
I7
sg21
I0
sg22
I0
sg23
I7
sg24
I0
sbssg25
S'\x0b\xb9e\xc1\x05\x98\x0c\x9b\x9a\x88\xfa\xb7\x9b<.*'
p442
ssS'slingsby_gear_urls'
p443
(dp444
g6
(dp445
g8
S'slingsby_gear_urls.html'
p446
sg10
S'slingsby.gear.urls'
p447
sg12
g13
(g14
g15
NtRp448
(dp449
g18
I1
sg19
I0
sg20
I3
sg21
I0
sg22
I0
sg23
I0
sg24
I0
sbssg25
S'\x08\x9d\xa0A/\xf5\x9a\x8cO\xe1\xb16L\x9eX\xaa'
p450
ssS'slingsby'
p451
(dp452
g6
(dp453
g8
S'slingsby.html'
p454
sg10
g451
sg12
g13
(g14
g15
NtRp455
(dp456
g18
I1
sg19
I0
sg20
I6
sg21
I0
sg22
I0
sg23
I6
sg24
I0
sbssg25
S'\x8d:>c\xe0\x94\xf2\xb0\xba\xe5\xbex\xa5;i\t'
p457
ssS'slingsby_instagram_migrations_0001_initial'
p458
(dp459
g6
(dp460
g8
S'slingsby_instagram_migrations_0001_initial.html'
p461
sg10
S'slingsby.instagram.migrations.0001_initial'
p462
sg12
g13
(g14
g15
NtRp463
(dp464
g18
I1
sg19
I0
sg20
I5
sg21
I0
sg22
I0
sg23
I0
sg24
I0
sbssg25
S'\x011_\xf7[\xd8\x8c\xd2\xfaA\xd6inr\xbd^'
p465
ssS'slingsby_general_migrations_0001_initial'
p466
(dp467
g6
(dp468
g8
S'slingsby_general_migrations_0001_initial.html'
p469
sg10
S'slingsby.general.migrations.0001_initial'
p470
sg12
g13
(g14
g15
NtRp471
(dp472
g18
I1
sg19
I0
sg20
I5
sg21
I0
sg22
I0
sg23
I0
sg24
I0
sbssg25
S'\t\xd8\xe8\xf4\xc6\x1a\xf7\x0b\xc76s\x1d\xdbRSW'
p473
ssS'slingsby_quotes_migrations_0002_auto_20141030_1617'
p474
(dp475
g6
(dp476
g8
S'slingsby_quotes_migrations_0002_auto_20141030_1617.html'
p477
sg10
S'slingsby.quotes.migrations.0002_auto_20141030_1617'
p478
sg12
g13
(g14
g15
NtRp479
(dp480
g18
I1
sg19
I0
sg20
I5
sg21
I0
sg22
I0
sg23
I0
sg24
I0
sbssg25
S'h\x8f\x87\xbf\xf47\xd4\x93\xaa\xff\xe6\xb9p\xe6g}'
p481
ssS'slingsby_articles_views'
p482
(dp483
g6
(dp484
g8
S'slingsby_articles_views.html'
p485
sg10
S'slingsby.articles.views'
p486
sg12
g13
(g14
g15
NtRp487
(dp488
g18
I1
sg19
I10
sg20
I58
sg21
I0
sg22
I0
sg23
I0
sg24
I0
sbssg25
S'\xe8\x83\xbe\xd3\x8b\xd9\xe8\x973\x1d\xcaZ\x8d\xe6\x128'
p489
ssS'slingsby_general_migrations_0002_auto_20141014_0039'
p490
(dp491
g6
(dp492
g8
S'slingsby_general_migrations_0002_auto_20141014_0039.html'
p493
sg10
S'slingsby.general.migrations.0002_auto_20141014_0039'
p494
sg12
g13
(g14
g15
NtRp495
(dp496
g18
I1
sg19
I0
sg20
I5
sg21
I0
sg22
I0
sg23
I0
sg24
I0
sbssg25
S'G+\xe7\x00\xea\xb8/(\xcd\x12\xa7&\xea\x08:\xf7'
p497
ssS'slingsby_events'
p498
(dp499
g6
(dp500
g8
S'slingsby_events.html'
p501
sg10
S'slingsby.events'
p502
sg12
g13
(g14
g15
NtRp503
(dp504
g18
I1
sg19
I0
sg20
I0
sg21
I0
sg22
I0
sg23
I0
sg24
I0
sbssg25
S'\xe5P\x11)^\xf4>1D.\x0e\x0b\xa1\xf8[+'
p505
ssS'slingsby_events_views'
p506
(dp507
g6
(dp508
g8
S'slingsby_events_views.html'
p509
sg10
S'slingsby.events.views'
p510
sg12
g13
(g14
g15
NtRp511
(dp512
g18
I1
sg19
I0
sg20
I57
sg21
I0
sg22
I0
sg23
I22
sg24
I0
sbssg25
S'+U\x8c\x97\t\x94\xd0\x8aX\xe3\xf2\x848\x14\xbf\xa7'
p513
ssS'slingsby_general_mixins'
p514
(dp515
g6
(dp516
g8
S'slingsby_general_mixins.html'
p517
sg10
S'slingsby.general.mixins'
p518
sg12
g13
(g14
g15
NtRp519
(dp520
g18
I1
sg19
I4
sg20
I15
sg21
I0
sg22
I1
sg23
I1
sg24
I1
sbssg25
S'\x06\x16zpN\xfa\x01\x15\xdb\x99\xef\x01\x9f\xb5[\xda'
p521
ssS'slingsby_instagram_views'
p522
(dp523
g6
(dp524
g8
S'slingsby_instagram_views.html'
p525
sg10
S'slingsby.instagram.views'
p526
sg12
g13
(g14
g15
NtRp527
(dp528
g18
I1
sg19
I0
sg20
I13
sg21
I0
sg22
I0
sg23
I0
sg24
I0
sbssg25
S'\x9eQt\x9eyD\x13\xfd\x8ey\x17\xb2\x13\xdbs '
p529
ssS'slingsby_musikk_migrations_0002_auto_20141030_1532'
p530
(dp531
g6
(dp532
g8
S'slingsby_musikk_migrations_0002_auto_20141030_1532.html'
p533
sg10
S'slingsby.musikk.migrations.0002_auto_20141030_1532'
p534
sg12
g13
(g14
g15
NtRp535
(dp536
g18
I1
sg19
I0
sg20
I5
sg21
I0
sg22
I0
sg23
I0
sg24
I0
sbssg25
S'\xdd\xe5\xa9~ 2\xbf\n\xcax/\xe5\xb1\xf22F'
p537
ssS'slingsby_events_migrations_0001_initial'
p538
(dp539
g6
(dp540
g8
S'slingsby_events_migrations_0001_initial.html'
p541
sg10
S'slingsby.events.migrations.0001_initial'
p542
sg12
g13
(g14
g15
NtRp543
(dp544
g18
I1
sg19
I0
sg20
I5
sg21
I0
sg22
I0
sg23
I0
sg24
I0
sbssg25
S'\x95C,\xc8iGe\xba\xceI\x1a\x0cuJ5\xe6'
p545
ssS'slingsby_general_views'
p546
(dp547
g6
(dp548
g8
S'slingsby_general_views.html'
p549
sg10
S'slingsby.general.views'
p550
sg12
g13
(g14
g15
NtRp551
(dp552
g18
I1
sg19
I16
sg20
I32
sg21
I0
sg22
I5
sg23
I3
sg24
I5
sbssg25
S'\x82qs\xc4j\xb3\xed\xa7\xce\x07\xb9(\xdd`\x15['
p553
ssS'slingsby_instagram'
p554
(dp555
g6
(dp556
g8
S'slingsby_instagram.html'
p557
sg10
S'slingsby.instagram'
p558
sg12
g13
(g14
g15
NtRp559
(dp560
g18
I1
sg19
I0
sg20
I0
sg21
I0
sg22
I0
sg23
I0
sg24
I0
sbssg25
S'\xe5P\x11)^\xf4>1D.\x0e\x0b\xa1\xf8[+'
p561
ssS'slingsby_general_templatetags_shorten'
p562
(dp563
g6
(dp564
g8
S'slingsby_general_templatetags_shorten.html'
p565
sg10
S'slingsby.general.templatetags.shorten'
p566
sg12
g13
(g14
g15
NtRp567
(dp568
g18
I1
sg19
I4
sg20
I13
sg21
I0
sg22
I2
sg23
I5
sg24
I2
sbssg25
S"\xc8\xeb\x04h9h\x06'\x85\x83\xdcmYmf<"
p569
ssS'slingsby_users_models'
p570
(dp571
g6
(dp572
g8
S'slingsby_users_models.html'
p573
sg10
S'slingsby.users.models'
p574
sg12
g13
(g14
g15
NtRp575
(dp576
g18
I1
sg19
I0
sg20
I0
sg21
I0
sg22
I0
sg23
I0
sg24
I0
sbssg25
S'\xe5P\x11)^\xf4>1D.\x0e\x0b\xa1\xf8[+'
p577
ssS'slingsby_archive_views'
p578
(dp579
g6
(dp580
g8
S'slingsby_archive_views.html'
p581
sg10
S'slingsby.archive.views'
p582
sg12
g13
(g14
g15
NtRp583
(dp584
g18
I1
sg19
I2
sg20
I24
sg21
I0
sg22
I0
sg23
I10
sg24
I0
sbssg25
S'W\x87\xbb^\xad&F\r?\x9bk\x94\x80\x13\xdb\xc3'
p585
ssS'slingsby_events_urls'
p586
(dp587
g6
(dp588
g8
S'slingsby_events_urls.html'
p589
sg10
S'slingsby.events.urls'
p590
sg12
g13
(g14
g15
NtRp591
(dp592
g18
I1
sg19
I0
sg20
I4
sg21
I0
sg22
I0
sg23
I0
sg24
I0
sbssg25
S'D5\x97\xd2w\x8d^\xa6\x19>4\x01\x9dSN\xbb'
p593
ssS'slingsby_events_admin'
p594
(dp595
g6
(dp596
g8
S'slingsby_events_admin.html'
p597
sg10
S'slingsby.events.admin'
p598
sg12
g13
(g14
g15
NtRp599
(dp600
g18
I1
sg19
I0
sg20
I6
sg21
I0
sg22
I0
sg23
I6
sg24
I0
sbssg25
S'/\x1e\x01mis\x16\xa6e\xf9\xd8L\x04(f\xe3'
p601
ssS'slingsby_musikk_models'
p602
(dp603
g6
(dp604
g8
S'slingsby_musikk_models.html'
p605
sg10
S'slingsby.musikk.models'
p606
sg12
g13
(g14
g15
NtRp607
(dp608
g18
I1
sg19
I0
sg20
I54
sg21
I0
sg22
I0
sg23
I50
sg24
I0
sbssg25
S'\xe9\x99\x86q\xea|\xc4\xae\x97\x9ak\xa8l \xd4C'
p609
ssS'slingsby_general'
p610
(dp611
g6
(dp612
g8
S'slingsby_general.html'
p613
sg10
S'slingsby.general'
p614
sg12
g13
(g14
g15
NtRp615
(dp616
g18
I1
sg19
I10
sg20
I27
sg21
I0
sg22
I1
sg23
I25
sg24
I9
sbssg25
S'\xd8\x10\xcc\xddLc\x1f\x18\x02\r\xfd,!\xd3\xe6\xe4'
p617
ssS'slingsby_instagram_models'
p618
(dp619
g6
(dp620
g8
S'slingsby_instagram_models.html'
p621
sg10
S'slingsby.instagram.models'
p622
sg12
g13
(g14
g15
NtRp623
(dp624
g18
I1
sg19
I0
sg20
I31
sg21
I0
sg22
I0
sg23
I30
sg24
I0
sbssg25
S'fP\xc4\xf4\xc0\x8c\xa4\xf7t\xbe\xa3B"*f\xea'
p625
ssS'slingsby_general_models'
p626
(dp627
g6
(dp628
g8
S'slingsby_general_models.html'
p629
sg10
S'slingsby.general.models'
p630
sg12
g13
(g14
g15
NtRp631
(dp632
g18
I1
sg19
I0
sg20
I11
sg21
I0
sg22
I0
sg23
I11
sg24
I0
sbssg25
S'a\x8f\x87\x0fw\xe7\xcc \x06\x89\xc4|i\x8f=a'
p633
ssS'slingsby_general_management_commands'
p634
(dp635
g6
(dp636
g8
S'slingsby_general_management_commands.html'
p637
sg10
S'slingsby.general.management.commands'
p638
sg12
g13
(g14
g15
NtRp639
(dp640
g18
I1
sg19
I0
sg20
I0
sg21
I0
sg22
I0
sg23
I0
sg24
I0
sbssg25
S'\x19g\xdfM\x1a\x019\xaf\x1baIeR\xe5u\xa7'
p641
ssS'slingsby_users_admin'
p642
(dp643
g6
(dp644
g8
S'slingsby_users_admin.html'
p645
sg10
S'slingsby.users.admin'
p646
sg12
g13
(g14
g15
NtRp647
(dp648
g18
I1
sg19
I0
sg20
I0
sg21
I0
sg22
I0
sg23
I0
sg24
I0
sbssg25
S'\xe5P\x11)^\xf4>1D.\x0e\x0b\xa1\xf8[+'
p649
ssS'slingsby_general_migrations'
p650
(dp651
g6
(dp652
g8
S'slingsby_general_migrations.html'
p653
sg10
S'slingsby.general.migrations'
p654
sg12
g13
(g14
g15
NtRp655
(dp656
g18
I1
sg19
I0
sg20
I0
sg21
I0
sg22
I0
sg23
I0
sg24
I0
sbssg25
S'\x19g\xdfM\x1a\x019\xaf\x1baIeR\xe5u\xa7'
p657
ssS'slingsby_archive_models'
p658
(dp659
g6
(dp660
g8
S'slingsby_archive_models.html'
p661
sg10
S'slingsby.archive.models'
p662
sg12
g13
(g14
g15
NtRp663
(dp664
g18
I1
sg19
I2
sg20
I40
sg21
I0
sg22
I0
sg23
I40
sg24
I2
sbssg25
S'\x9d\xe5\xf2\xb8?\xfc!\x8d\xab\x8dD\xa0j\xe7\x04\xf6'
p665
ssS'slingsby_gear_views'
p666
(dp667
g6
(dp668
g8
S'slingsby_gear_views.html'
p669
sg10
S'slingsby.gear.views'
p670
sg12
g13
(g14
g15
NtRp671
(dp672
g18
I1
sg19
I2
sg20
I31
sg21
I0
sg22
I0
sg23
I15
sg24
I0
sbssg25
S'!m\xf9\x17\xb0wM\xb2\x1f\xd6\xfb\xa3\xf1\xacK\n'
p673
sssS'version'
p674
S'3.7.1'
p675
sS'settings'
p676
S'>\xf0sL\x1f\x8a\xb0\xa9\xc0\x0f\xbe6/\x13\x92L'
p677
sS'format'
p678
I1
s.