(dp1
S'files'
p2
(dp3
S'slingsby_quotes'
p4
(dp5
S'index'
p6
(dp7
S'html_filename'
p8
S'slingsby_quotes.html'
p9
sS'name'
p10
S'slingsby.quotes'
p11
sS'nums'
p12
ccopy_reg
_reconstructor
p13
(ccoverage.results
Numbers
p14
c__builtin__
object
p15
NtRp16
(dp17
S'n_files'
p18
I1
sS'n_branches'
p19
I0
sS'n_statements'
p20
I0
sS'n_excluded'
p21
I0
sS'n_partial_branches'
p22
I0
sS'n_missing'
p23
I0
sS'n_missing_branches'
p24
I0
sbssS'hash'
p25
S'\xe5P\x11)^\xf4>1D.\x0e\x0b\xa1\xf8[+'
p26
ssS'slingsby_general_time'
p27
(dp28
g6
(dp29
g8
S'slingsby_general_time.html'
p30
sg10
S'slingsby.general.time'
p31
sg12
g13
(g14
g15
NtRp32
(dp33
g18
I1
sg19
I6
sg20
I45
sg21
I0
sg22
I2
sg23
I34
sg24
I4
sbssg25
S'\xceS1&\xb7V\x06\x1b\x0f\xf72\x8a\xfb\xbc?\xaf'
p34
ssS'slingsby_archive'
p35
(dp36
g6
(dp37
g8
S'slingsby_archive.html'
p38
sg10
S'slingsby.archive'
p39
sg12
g13
(g14
g15
NtRp40
(dp41
g18
I1
sg19
I0
sg20
I0
sg21
I0
sg22
I0
sg23
I0
sg24
I0
sbssg25
S'\xe5P\x11)^\xf4>1D.\x0e\x0b\xa1\xf8[+'
p42
ssS'slingsby_gear'
p43
(dp44
g6
(dp45
g8
S'slingsby_gear.html'
p46
sg10
S'slingsby.gear'
p47
sg12
g13
(g14
g15
NtRp48
(dp49
g18
I1
sg19
I0
sg20
I0
sg21
I0
sg22
I0
sg23
I0
sg24
I0
sbssg25
S'\xe5P\x11)^\xf4>1D.\x0e\x0b\xa1\xf8[+'
p50
ssS'slingsby_settings'
p51
(dp52
g6
(dp53
g8
S'slingsby_settings.html'
p54
sg10
S'slingsby.settings'
p55
sg12
g13
(g14
g15
NtRp56
(dp57
g18
I1
sg19
I8
sg20
I57
sg21
I0
sg22
I1
sg23
I53
sg24
I3
sbssg25
S'4\x03"\x9e\xfe\xa7\xcdt\xa7\x87\xfd}k\xce\x10,'
p58
ssS'slingsby_articles_migrations'
p59
(dp60
g6
(dp61
g8
S'slingsby_articles_migrations.html'
p62
sg10
S'slingsby.articles.migrations'
p63
sg12
g13
(g14
g15
NtRp64
(dp65
g18
I1
sg19
I0
sg20
I0
sg21
I0
sg22
I0
sg23
I0
sg24
I0
sbssg25
S'\x19g\xdfM\x1a\x019\xaf\x1baIeR\xe5u\xa7'
p66
ssS'slingsby_musikk_admin'
p67
(dp68
g6
(dp69
g8
S'slingsby_musikk_admin.html'
p70
sg10
S'slingsby.musikk.admin'
p71
sg12
g13
(g14
g15
NtRp72
(dp73
g18
I1
sg19
I4
sg20
I17
sg21
I0
sg22
I0
sg23
I17
sg24
I4
sbssg25
S'\x1bx\xb7j\x1c\x89\x87>o-\x9a\xa3)2\x9c`'
p74
ssS'slingsby_events_migrations'
p75
(dp76
g6
(dp77
g8
S'slingsby_events_migrations.html'
p78
sg10
S'slingsby.events.migrations'
p79
sg12
g13
(g14
g15
NtRp80
(dp81
g18
I1
sg19
I0
sg20
I0
sg21
I0
sg22
I0
sg23
I0
sg24
I0
sbssg25
S'\x19g\xdfM\x1a\x019\xaf\x1baIeR\xe5u\xa7'
p82
ssS'slingsby_musikk_views'
p83
(dp84
g6
(dp85
g8
S'slingsby_musikk_views.html'
p86
sg10
S'slingsby.musikk.views'
p87
sg12
g13
(g14
g15
NtRp88
(dp89
g18
I1
sg19
I20
sg20
I152
sg21
I0
sg22
I3
sg23
I26
sg24
I9
sbssg25
S'$Y\xac\xac\xd6L9\xf6\xd0\x06\xfd\xc7S\xd8\xae\x8a'
p90
ssS'slingsby_articles_migrations_0001_initial'
p91
(dp92
g6
(dp93
g8
S'slingsby_articles_migrations_0001_initial.html'
p94
sg10
S'slingsby.articles.migrations.0001_initial'
p95
sg12
g13
(g14
g15
NtRp96
(dp97
g18
I1
sg19
I0
sg20
I6
sg21
I0
sg22
I0
sg23
I0
sg24
I0
sbssg25
S'\n\xf9U\xc9!\xdbb\xbf\xb5Lbi62\xe3\x95'
p98
ssS'slingsby_quotes_views'
p99
(dp100
g6
(dp101
g8
S'slingsby_quotes_views.html'
p102
sg10
S'slingsby.quotes.views'
p103
sg12
g13
(g14
g15
NtRp104
(dp105
g18
I1
sg19
I10
sg20
I76
sg21
I0
sg22
I0
sg23
I48
sg24
I8
sbssg25
S'-\x1c\xd73\x81|/\xb3&Wq&\x18\xc7P\xe7'
p106
ssS'slingsby_general_templatetags_revved_static'
p107
(dp108
g6
(dp109
g8
S'slingsby_general_templatetags_revved_static.html'
p110
sg10
S'slingsby.general.templatetags.revved_static'
p111
sg12
g13
(g14
g15
NtRp112
(dp113
g18
I1
sg19
I2
sg20
I16
sg21
I0
sg22
I1
sg23
I10
sg24
I1
sbssg25
S'\xd6\xaf\xf2\xb12\x92\x85~\xcd\x16\xdf\x9aZBk#'
p114
ssS'slingsby_gear_admin'
p115
(dp116
g6
(dp117
g8
S'slingsby_gear_admin.html'
p118
sg10
S'slingsby.gear.admin'
p119
sg12
g13
(g14
g15
NtRp120
(dp121
g18
I1
sg19
I0
sg20
I4
sg21
I0
sg22
I0
sg23
I4
sg24
I0
sbssg25
S'\x03\xcfv\'H\x02r\xe4\x1ce\x91\xcd\xe0\xaf\xd9"'
p122
ssS'slingsby_general_context_processors'
p123
(dp124
g6
(dp125
g8
S'slingsby_general_context_processors.html'
p126
sg10
S'slingsby.general.context_processors'
p127
sg12
g13
(g14
g15
NtRp128
(dp129
g18
I1
sg19
I0
sg20
I15
sg21
I0
sg22
I0
sg23
I0
sg24
I0
sbssg25
S'\xf7Z\x1e\xfc\x00\x00F\xdb\xc8i\xce\xa6\x99\xbcI\xd5'
p130
ssS'slingsby_gear_models'
p131
(dp132
g6
(dp133
g8
S'slingsby_gear_models.html'
p134
sg10
S'slingsby.gear.models'
p135
sg12
g13
(g14
g15
NtRp136
(dp137
g18
I1
sg19
I0
sg20
I21
sg21
I0
sg22
I0
sg23
I21
sg24
I0
sbssg25
S'\xbe\x89\x8a\x89\xed\xbb\x90\xe9\x1f\x18\xb82\xe6\xc7\xa6\xcf'
p138
ssS'slingsby_users_urls'
p139
(dp140
g6
(dp141
g8
S'slingsby_users_urls.html'
p142
sg10
S'slingsby.users.urls'
p143
sg12
g13
(g14
g15
NtRp144
(dp145
g18
I1
sg19
I0
sg20
I4
sg21
I0
sg22
I0
sg23
I0
sg24
I0
sbssg25
S'\x16\xabe)\x8b\x93\xb9\t\xe64\xe6\xc6\x12u\x08\xd3'
p146
ssS'slingsby_users'
p147
(dp148
g6
(dp149
g8
S'slingsby_users.html'
p150
sg10
S'slingsby.users'
p151
sg12
g13
(g14
g15
NtRp152
(dp153
g18
I1
sg19
I0
sg20
I9
sg21
I0
sg22
I0
sg23
I9
sg24
I0
sbssg25
S'\x98N\x04#\x8e\xe5\x93R\xff(\xbc\xb0\xc5\xc1M%'
p154
ssS'slingsby_musikk_tasks'
p155
(dp156
g6
(dp157
g8
S'slingsby_musikk_tasks.html'
p158
sg10
S'slingsby.musikk.tasks'
p159
sg12
g13
(g14
g15
NtRp160
(dp161
g18
I1
sg19
I21
sg20
I95
sg21
I0
sg22
I3
sg23
I30
sg24
I3
sbssg25
S'\rv\x8d9W_\x94`S\x99\xebg\xf8B\x1d\x95'
p162
ssS'slingsby_musikk_models'
p163
(dp164
g6
(dp165
g8
S'slingsby_musikk_models.html'
p166
sg10
S'slingsby.musikk.models'
p167
sg12
g13
(g14
g15
NtRp168
(dp169
g18
I1
sg19
I0
sg20
I54
sg21
I0
sg22
I0
sg23
I50
sg24
I0
sbssg25
S'\xe9\x99\x86q\xea|\xc4\xae\x97\x9ak\xa8l \xd4C'
p170
ssS'slingsby_articles_admin'
p171
(dp172
g6
(dp173
g8
S'slingsby_articles_admin.html'
p174
sg10
S'slingsby.articles.admin'
p175
sg12
g13
(g14
g15
NtRp176
(dp177
g18
I1
sg19
I4
sg20
I25
sg21
I0
sg22
I0
sg23
I25
sg24
I4
sbssg25
S'\xf6\xcf\xf9\x92U\x87G4\xea\xc9\xa6\x86\x1e\x08L\x8b'
p178
ssS'slingsby_quotes_context_processors'
p179
(dp180
g6
(dp181
g8
S'slingsby_quotes_context_processors.html'
p182
sg10
S'slingsby.quotes.context_processors'
p183
sg12
g13
(g14
g15
NtRp184
(dp185
g18
I1
sg19
I4
sg20
I16
sg21
I0
sg22
I1
sg23
I1
sg24
I1
sbssg25
S'h\xf0\x9a\xb7\xb8\xf8=~;a-\x94{\xcdf\xdb'
p186
ssS'slingsby_gear_views'
p187
(dp188
g6
(dp189
g8
S'slingsby_gear_views.html'
p190
sg10
S'slingsby.gear.views'
p191
sg12
g13
(g14
g15
NtRp192
(dp193
g18
I1
sg19
I2
sg20
I31
sg21
I0
sg22
I0
sg23
I15
sg24
I0
sbssg25
S'!m\xf9\x17\xb0wM\xb2\x1f\xd6\xfb\xa3\xf1\xacK\n'
p194
ssS'slingsby_instagram_admin'
p195
(dp196
g6
(dp197
g8
S'slingsby_instagram_admin.html'
p198
sg10
S'slingsby.instagram.admin'
p199
sg12
g13
(g14
g15
NtRp200
(dp201
g18
I1
sg19
I0
sg20
I4
sg21
I0
sg22
I0
sg23
I4
sg24
I0
sbssg25
S'<\xa7A\xd9-\x81\xdc\x1c\xd4\x17;4+\xc6\xd3\xdd'
p202
ssS'slingsby_general_admin'
p203
(dp204
g6
(dp205
g8
S'slingsby_general_admin.html'
p206
sg10
S'slingsby.general.admin'
p207
sg12
g13
(g14
g15
NtRp208
(dp209
g18
I1
sg19
I0
sg20
I3
sg21
I0
sg22
I0
sg23
I3
sg24
I0
sbssg25
S'\r\xcb\xd5u\xb1\xddd\xa3td\xc8\x17\x1e\xcdx '
p210
ssS'slingsby_quotes_migrations'
p211
(dp212
g6
(dp213
g8
S'slingsby_quotes_migrations.html'
p214
sg10
S'slingsby.quotes.migrations'
p215
sg12
g13
(g14
g15
NtRp216
(dp217
g18
I1
sg19
I0
sg20
I0
sg21
I0
sg22
I0
sg23
I0
sg24
I0
sbssg25
S'\x19g\xdfM\x1a\x019\xaf\x1baIeR\xe5u\xa7'
p218
ssS'slingsby_general_middleware'
p219
(dp220
g6
(dp221
g8
S'slingsby_general_middleware.html'
p222
sg10
S'slingsby.general.middleware'
p223
sg12
g13
(g14
g15
NtRp224
(dp225
g18
I1
sg19
I12
sg20
I24
sg21
I0
sg22
I0
sg23
I0
sg24
I0
sbssg25
S'\xbfc\xe6\xd0\x91*%\xc6\x04\x86\xafj\xed\xb1/5'
p226
ssS'slingsby_archive_migrations'
p227
(dp228
g6
(dp229
g8
S'slingsby_archive_migrations.html'
p230
sg10
S'slingsby.archive.migrations'
p231
sg12
g13
(g14
g15
NtRp232
(dp233
g18
I1
sg19
I0
sg20
I0
sg21
I0
sg22
I0
sg23
I0
sg24
I0
sbssg25
S'\x19g\xdfM\x1a\x019\xaf\x1baIeR\xe5u\xa7'
p234
ssS'slingsby_general_widgets'
p235
(dp236
g6
(dp237
g8
S'slingsby_general_widgets.html'
p238
sg10
S'slingsby.general.widgets'
p239
sg12
g13
(g14
g15
NtRp240
(dp241
g18
I1
sg19
I2
sg20
I19
sg21
I0
sg22
I0
sg23
I19
sg24
I2
sbssg25
S'\x19kf3\xf6jU\xf8\x16z\x055ux\xc4\xed'
p242
ssS'slingsby_musikk'
p243
(dp244
g6
(dp245
g8
S'slingsby_musikk.html'
p246
sg10
S'slingsby.musikk'
p247
sg12
g13
(g14
g15
NtRp248
(dp249
g18
I1
sg19
I0
sg20
I0
sg21
I0
sg22
I0
sg23
I0
sg24
I0
sbssg25
S'\xe5P\x11)^\xf4>1D.\x0e\x0b\xa1\xf8[+'
p250
ssS'slingsby_general_cache'
p251
(dp252
g6
(dp253
g8
S'slingsby_general_cache.html'
p254
sg10
S'slingsby.general.cache'
p255
sg12
g13
(g14
g15
NtRp256
(dp257
g18
I1
sg19
I12
sg20
I62
sg21
I0
sg22
I5
sg23
I7
sg24
I5
sbssg25
S'pJ\x03\x96\xc2\x87\xb4\xd5fi\xe9vqd\xbey'
p258
ssS'slingsby_articles_models'
p259
(dp260
g6
(dp261
g8
S'slingsby_articles_models.html'
p262
sg10
S'slingsby.articles.models'
p263
sg12
g13
(g14
g15
NtRp264
(dp265
g18
I1
sg19
I12
sg20
I104
sg21
I0
sg22
I2
sg23
I93
sg24
I10
sbssg25
S"k\x98\xc1&'\x86\xe5aC\xe46\x10,J\xde\xcc"
p266
ssS'slingsby_general_templatetags_disqus_identifier'
p267
(dp268
g6
(dp269
g8
S'slingsby_general_templatetags_disqus_identifier.html'
p270
sg10
S'slingsby.general.templatetags.disqus_identifier'
p271
sg12
g13
(g14
g15
NtRp272
(dp273
g18
I1
sg19
I0
sg20
I6
sg21
I0
sg22
I0
sg23
I0
sg24
I0
sbssg25
S' q4\xe4m\xf4\x12\xcf\x14\xd3`\x1a\x9e!&l'
p274
ssS'slingsby_musikk_migrations_0001_initial'
p275
(dp276
g6
(dp277
g8
S'slingsby_musikk_migrations_0001_initial.html'
p278
sg10
S'slingsby.musikk.migrations.0001_initial'
p279
sg12
g13
(g14
g15
NtRp280
(dp281
g18
I1
sg19
I0
sg20
I7
sg21
I0
sg22
I0
sg23
I0
sg24
I0
sbssg25
S'\xc8}]\x89X\x06L\xf6\x8d/\xa9zm\x0f\x1a$'
p282
ssS'slingsby_articles_urls'
p283
(dp284
g6
(dp285
g8
S'slingsby_articles_urls.html'
p286
sg10
S'slingsby.articles.urls'
p287
sg12
g13
(g14
g15
NtRp288
(dp289
g18
I1
sg19
I4
sg20
I7
sg21
I0
sg22
I2
sg23
I1
sg24
I2
sbssg25
S'\x9a\xa6\xfaE!\xbe\x8c6\xe0\xc2N\x85!vY\x0c'
p290
ssS'slingsby_articles_widgets'
p291
(dp292
g6
(dp293
g8
S'slingsby_articles_widgets.html'
p294
sg10
S'slingsby.articles.widgets'
p295
sg12
g13
(g14
g15
NtRp296
(dp297
g18
I1
sg19
I0
sg20
I8
sg21
I0
sg22
I0
sg23
I8
sg24
I0
sbssg25
S'\xdeZ>\xdfP\xe2\x13a\xed\x7f\x16\xc0\xcb\xf4\xe5h'
p298
ssS'slingsby_instagram_urls'
p299
(dp300
g6
(dp301
g8
S'slingsby_instagram_urls.html'
p302
sg10
S'slingsby.instagram.urls'
p303
sg12
g13
(g14
g15
NtRp304
(dp305
g18
I1
sg19
I0
sg20
I3
sg21
I0
sg22
I0
sg23
I0
sg24
I0
sbssg25
S'\x17\x1f+\xe1\xffr\xda\\\x98\xbd\xf6\xe2\x821\xd4\xab'
p306
ssS'slingsby_musikk_urls'
p307
(dp308
g6
(dp309
g8
S'slingsby_musikk_urls.html'
p310
sg10
S'slingsby.musikk.urls'
p311
sg12
g13
(g14
g15
NtRp312
(dp313
g18
I1
sg19
I0
sg20
I5
sg21
I0
sg22
I0
sg23
I0
sg24
I0
sbssg25
S'\x1f\xafq/\n\xa7\x9d,FQ\xc8\xeb\x99BO\xcf'
p314
ssS'slingsby_events_models'
p315
(dp316
g6
(dp317
g8
S'slingsby_events_models.html'
p318
sg10
S'slingsby.events.models'
p319
sg12
g13
(g14
g15
NtRp320
(dp321
g18
I1
sg19
I32
sg20
I153
sg21
I0
sg22
I2
sg23
I147
sg24
I30
sbssg25
S'\xed\n<\xe7\x84\rf\x01\xce{\xba\xbb\xber\xd0\x82'
p322
ssS'slingsby_urls'
p323
(dp324
g6
(dp325
g8
S'slingsby_urls.html'
p326
sg10
S'slingsby.urls'
p327
sg12
g13
(g14
g15
NtRp328
(dp329
g18
I1
sg19
I8
sg20
I24
sg21
I0
sg22
I3
sg23
I5
sg24
I5
sbssg25
S'\xc5d\xeb\xc8\x04p\x9cy\xf7\xbaze\xb6\xfa\xc3\x9f'
p330
ssS'slingsby_users_views'
p331
(dp332
g6
(dp333
g8
S'slingsby_users_views.html'
p334
sg10
S'slingsby.users.views'
p335
sg12
g13
(g14
g15
NtRp336
(dp337
g18
I1
sg19
I14
sg20
I63
sg21
I0
sg22
I4
sg23
I17
sg24
I10
sbssg25
S'\xcf(wl\xae\xa4\xd8\xd8\x16\xcc& \xbf\xfe\xe4\x08'
p338
ssS'slingsby_articles'
p339
(dp340
g6
(dp341
g8
S'slingsby_articles.html'
p342
sg10
S'slingsby.articles'
p343
sg12
g13
(g14
g15
NtRp344
(dp345
g18
I1
sg19
I0
sg20
I0
sg21
I0
sg22
I0
sg23
I0
sg24
I0
sbssg25
S'\xe5P\x11)^\xf4>1D.\x0e\x0b\xa1\xf8[+'
p346
ssS'slingsby_general_management'
p347
(dp348
g6
(dp349
g8
S'slingsby_general_management.html'
p350
sg10
S'slingsby.general.management'
p351
sg12
g13
(g14
g15
NtRp352
(dp353
g18
I1
sg19
I0
sg20
I0
sg21
I0
sg22
I0
sg23
I0
sg24
I0
sbssg25
S'\x19g\xdfM\x1a\x019\xaf\x1baIeR\xe5u\xa7'
p354
ssS'slingsby_instagram_tasks'
p355
(dp356
g6
(dp357
g8
S'slingsby_instagram_tasks.html'
p358
sg10
S'slingsby.instagram.tasks'
p359
sg12
g13
(g14
g15
NtRp360
(dp361
g18
I1
sg19
I8
sg20
I28
sg21
I0
sg22
I0
sg23
I11
sg24
I0
sbssg25
S"\x99)\xa1<\xc2\x0f\xf3+'\x99{Bl\xbe\x05`"
p362
ssS'slingsby_quotes_models'
p363
(dp364
g6
(dp365
g8
S'slingsby_quotes_models.html'
p366
sg10
S'slingsby.quotes.models'
p367
sg12
g13
(g14
g15
NtRp368
(dp369
g18
I1
sg19
I6
sg20
I32
sg21
I0
sg22
I0
sg23
I32
sg24
I6
sbssg25
S"$+!\xac\xe1'\xb6\x8a\x0f\xcbEj\x81\xe6=="
p370
ssS'slingsby_instagram_migrations'
p371
(dp372
g6
(dp373
g8
S'slingsby_instagram_migrations.html'
p374
sg10
S'slingsby.instagram.migrations'
p375
sg12
g13
(g14
g15
NtRp376
(dp377
g18
I1
sg19
I0
sg20
I0
sg21
I0
sg22
I0
sg23
I0
sg24
I0
sbssg25
S'\x19g\xdfM\x1a\x019\xaf\x1baIeR\xe5u\xa7'
p378
ssS'slingsby_archive_admin'
p379
(dp380
g6
(dp381
g8
S'slingsby_archive_admin.html'
p382
sg10
S'slingsby.archive.admin'
p383
sg12
g13
(g14
g15
NtRp384
(dp385
g18
I1
sg19
I0
sg20
I7
sg21
I0
sg22
I0
sg23
I7
sg24
I0
sbssg25
S'\x1fi\xdb\x8b\xccQ\xcakLE"\xb7p\x01\x17\xab'
p386
ssS'slingsby_archive_urls'
p387
(dp388
g6
(dp389
g8
S'slingsby_archive_urls.html'
p390
sg10
S'slingsby.archive.urls'
p391
sg12
g13
(g14
g15
NtRp392
(dp393
g18
I1
sg19
I0
sg20
I3
sg21
I0
sg22
I0
sg23
I0
sg24
I0
sbssg25
S'Q\xce\xa6\xef\x90jt4I\x8b\xe3;\x01\xec\xc5u'
p394
ssS'slingsby_musikk_migrations'
p395
(dp396
g6
(dp397
g8
S'slingsby_musikk_migrations.html'
p398
sg10
S'slingsby.musikk.migrations'
p399
sg12
g13
(g14
g15
NtRp400
(dp401
g18
I1
sg19
I0
sg20
I0
sg21
I0
sg22
I0
sg23
I0
sg24
I0
sbssg25
S'\x19g\xdfM\x1a\x019\xaf\x1baIeR\xe5u\xa7'
p402
ssS'slingsby_general_templatetags'
p403
(dp404
g6
(dp405
g8
S'slingsby_general_templatetags.html'
p406
sg10
S'slingsby.general.templatetags'
p407
sg12
g13
(g14
g15
NtRp408
(dp409
g18
I1
sg19
I0
sg20
I0
sg21
I0
sg22
I0
sg23
I0
sg24
I0
sbssg25
S'\xe5P\x11)^\xf4>1D.\x0e\x0b\xa1\xf8[+'
p410
ssS'slingsby_quotes_urls'
p411
(dp412
g6
(dp413
g8
S'slingsby_quotes_urls.html'
p414
sg10
S'slingsby.quotes.urls'
p415
sg12
g13
(g14
g15
NtRp416
(dp417
g18
I1
sg19
I0
sg20
I4
sg21
I0
sg22
I0
sg23
I0
sg24
I0
sbssg25
S'\tY&\xc6\xbeY+)Cd\xba?\xb8\xb8m\xeb'
p418
ssS'slingsby_celery'
p419
(dp420
g6
(dp421
g8
S'slingsby_celery.html'
p422
sg10
S'slingsby.celery'
p423
sg12
g13
(g14
g15
NtRp424
(dp425
g18
I1
sg19
I2
sg20
I8
sg21
I0
sg22
I0
sg23
I8
sg24
I2
sbssg25
S'\xf0(e\x8evgPS\x9d\xc2\x0c+\x80a=\x82'
p426
ssS'slingsby_quotes_admin'
p427
(dp428
g6
(dp429
g8
S'slingsby_quotes_admin.html'
p430
sg10
S'slingsby.quotes.admin'
p431
sg12
g13
(g14
g15
NtRp432
(dp433
g18
I1
sg19
I0
sg20
I7
sg21
I0
sg22
I0
sg23
I7
sg24
I0
sbssg25
S'\x0b\xb9e\xc1\x05\x98\x0c\x9b\x9a\x88\xfa\xb7\x9b<.*'
p434
ssS'slingsby_gear_urls'
p435
(dp436
g6
(dp437
g8
S'slingsby_gear_urls.html'
p438
sg10
S'slingsby.gear.urls'
p439
sg12
g13
(g14
g15
NtRp440
(dp441
g18
I1
sg19
I0
sg20
I3
sg21
I0
sg22
I0
sg23
I0
sg24
I0
sbssg25
S'\x08\x9d\xa0A/\xf5\x9a\x8cO\xe1\xb16L\x9eX\xaa'
p442
ssS'slingsby_archive_migrations_0001_initial'
p443
(dp444
g6
(dp445
g8
S'slingsby_archive_migrations_0001_initial.html'
p446
sg10
S'slingsby.archive.migrations.0001_initial'
p447
sg12
g13
(g14
g15
NtRp448
(dp449
g18
I1
sg19
I0
sg20
I6
sg21
I0
sg22
I0
sg23
I0
sg24
I0
sbssg25
S'1\xb5\xd3\xa3\xc5$\xf0\x1cK\x1d\xe8\x8f\x94\xe7\x8fT'
p450
ssS'slingsby_instagram_migrations_0001_initial'
p451
(dp452
g6
(dp453
g8
S'slingsby_instagram_migrations_0001_initial.html'
p454
sg10
S'slingsby.instagram.migrations.0001_initial'
p455
sg12
g13
(g14
g15
NtRp456
(dp457
g18
I1
sg19
I0
sg20
I5
sg21
I0
sg22
I0
sg23
I0
sg24
I0
sbssg25
S'\x011_\xf7[\xd8\x8c\xd2\xfaA\xd6inr\xbd^'
p458
ssS'slingsby_general_migrations_0001_initial'
p459
(dp460
g6
(dp461
g8
S'slingsby_general_migrations_0001_initial.html'
p462
sg10
S'slingsby.general.migrations.0001_initial'
p463
sg12
g13
(g14
g15
NtRp464
(dp465
g18
I1
sg19
I0
sg20
I5
sg21
I0
sg22
I0
sg23
I0
sg24
I0
sbssg25
S'\t\xd8\xe8\xf4\xc6\x1a\xf7\x0b\xc76s\x1d\xdbRSW'
p466
ssS'slingsby_quotes_migrations_0002_auto_20141030_1617'
p467
(dp468
g6
(dp469
g8
S'slingsby_quotes_migrations_0002_auto_20141030_1617.html'
p470
sg10
S'slingsby.quotes.migrations.0002_auto_20141030_1617'
p471
sg12
g13
(g14
g15
NtRp472
(dp473
g18
I1
sg19
I0
sg20
I5
sg21
I0
sg22
I0
sg23
I0
sg24
I0
sbssg25
S'h\x8f\x87\xbf\xf47\xd4\x93\xaa\xff\xe6\xb9p\xe6g}'
p474
ssS'slingsby_articles_views'
p475
(dp476
g6
(dp477
g8
S'slingsby_articles_views.html'
p478
sg10
S'slingsby.articles.views'
p479
sg12
g13
(g14
g15
NtRp480
(dp481
g18
I1
sg19
I10
sg20
I58
sg21
I0
sg22
I0
sg23
I0
sg24
I0
sbssg25
S'\xe8\x83\xbe\xd3\x8b\xd9\xe8\x973\x1d\xcaZ\x8d\xe6\x128'
p482
ssS'slingsby_general_migrations_0002_auto_20141014_0039'
p483
(dp484
g6
(dp485
g8
S'slingsby_general_migrations_0002_auto_20141014_0039.html'
p486
sg10
S'slingsby.general.migrations.0002_auto_20141014_0039'
p487
sg12
g13
(g14
g15
NtRp488
(dp489
g18
I1
sg19
I0
sg20
I5
sg21
I0
sg22
I0
sg23
I0
sg24
I0
sbssg25
S'G+\xe7\x00\xea\xb8/(\xcd\x12\xa7&\xea\x08:\xf7'
p490
ssS'slingsby_events'
p491
(dp492
g6
(dp493
g8
S'slingsby_events.html'
p494
sg10
S'slingsby.events'
p495
sg12
g13
(g14
g15
NtRp496
(dp497
g18
I1
sg19
I0
sg20
I0
sg21
I0
sg22
I0
sg23
I0
sg24
I0
sbssg25
S'\xe5P\x11)^\xf4>1D.\x0e\x0b\xa1\xf8[+'
p498
ssS'slingsby_events_views'
p499
(dp500
g6
(dp501
g8
S'slingsby_events_views.html'
p502
sg10
S'slingsby.events.views'
p503
sg12
g13
(g14
g15
NtRp504
(dp505
g18
I1
sg19
I0
sg20
I57
sg21
I0
sg22
I0
sg23
I22
sg24
I0
sbssg25
S'+U\x8c\x97\t\x94\xd0\x8aX\xe3\xf2\x848\x14\xbf\xa7'
p506
ssS'slingsby_general_mixins'
p507
(dp508
g6
(dp509
g8
S'slingsby_general_mixins.html'
p510
sg10
S'slingsby.general.mixins'
p511
sg12
g13
(g14
g15
NtRp512
(dp513
g18
I1
sg19
I4
sg20
I15
sg21
I0
sg22
I1
sg23
I1
sg24
I1
sbssg25
S'\x06\x16zpN\xfa\x01\x15\xdb\x99\xef\x01\x9f\xb5[\xda'
p514
ssS'slingsby_instagram_views'
p515
(dp516
g6
(dp517
g8
S'slingsby_instagram_views.html'
p518
sg10
S'slingsby.instagram.views'
p519
sg12
g13
(g14
g15
NtRp520
(dp521
g18
I1
sg19
I0
sg20
I13
sg21
I0
sg22
I0
sg23
I0
sg24
I0
sbssg25
S'\x9eQt\x9eyD\x13\xfd\x8ey\x17\xb2\x13\xdbs '
p522
ssS'slingsby_musikk_migrations_0002_auto_20141030_1532'
p523
(dp524
g6
(dp525
g8
S'slingsby_musikk_migrations_0002_auto_20141030_1532.html'
p526
sg10
S'slingsby.musikk.migrations.0002_auto_20141030_1532'
p527
sg12
g13
(g14
g15
NtRp528
(dp529
g18
I1
sg19
I0
sg20
I5
sg21
I0
sg22
I0
sg23
I0
sg24
I0
sbssg25
S'\xdd\xe5\xa9~ 2\xbf\n\xcax/\xe5\xb1\xf22F'
p530
ssS'slingsby_events_migrations_0001_initial'
p531
(dp532
g6
(dp533
g8
S'slingsby_events_migrations_0001_initial.html'
p534
sg10
S'slingsby.events.migrations.0001_initial'
p535
sg12
g13
(g14
g15
NtRp536
(dp537
g18
I1
sg19
I0
sg20
I5
sg21
I0
sg22
I0
sg23
I0
sg24
I0
sbssg25
S'\x95C,\xc8iGe\xba\xceI\x1a\x0cuJ5\xe6'
p538
ssS'slingsby_general_utils'
p539
(dp540
g6
(dp541
g8
S'slingsby_general_utils.html'
p542
sg10
S'slingsby.general.utils'
p543
sg12
g13
(g14
g15
NtRp544
(dp545
g18
I1
sg19
I12
sg20
I85
sg21
I0
sg22
I4
sg23
I30
sg24
I4
sbssg25
S'\x91\x11\xebA#\xeep\x03\x80\xc6\x8a\xc7\x00\xc7\x94\x15'
p546
ssS'slingsby_general_views'
p547
(dp548
g6
(dp549
g8
S'slingsby_general_views.html'
p550
sg10
S'slingsby.general.views'
p551
sg12
g13
(g14
g15
NtRp552
(dp553
g18
I1
sg19
I16
sg20
I32
sg21
I0
sg22
I5
sg23
I3
sg24
I5
sbssg25
S'\x82qs\xc4j\xb3\xed\xa7\xce\x07\xb9(\xdd`\x15['
p554
ssS'slingsby_instagram'
p555
(dp556
g6
(dp557
g8
S'slingsby_instagram.html'
p558
sg10
S'slingsby.instagram'
p559
sg12
g13
(g14
g15
NtRp560
(dp561
g18
I1
sg19
I0
sg20
I0
sg21
I0
sg22
I0
sg23
I0
sg24
I0
sbssg25
S'\xe5P\x11)^\xf4>1D.\x0e\x0b\xa1\xf8[+'
p562
ssS'slingsby_general_templatetags_shorten'
p563
(dp564
g6
(dp565
g8
S'slingsby_general_templatetags_shorten.html'
p566
sg10
S'slingsby.general.templatetags.shorten'
p567
sg12
g13
(g14
g15
NtRp568
(dp569
g18
I1
sg19
I4
sg20
I13
sg21
I0
sg22
I2
sg23
I5
sg24
I2
sbssg25
S"\xc8\xeb\x04h9h\x06'\x85\x83\xdcmYmf<"
p570
ssS'slingsby_users_models'
p571
(dp572
g6
(dp573
g8
S'slingsby_users_models.html'
p574
sg10
S'slingsby.users.models'
p575
sg12
g13
(g14
g15
NtRp576
(dp577
g18
I1
sg19
I0
sg20
I0
sg21
I0
sg22
I0
sg23
I0
sg24
I0
sbssg25
S'\xe5P\x11)^\xf4>1D.\x0e\x0b\xa1\xf8[+'
p578
ssS'slingsby_archive_views'
p579
(dp580
g6
(dp581
g8
S'slingsby_archive_views.html'
p582
sg10
S'slingsby.archive.views'
p583
sg12
g13
(g14
g15
NtRp584
(dp585
g18
I1
sg19
I14
sg20
I76
sg21
I0
sg22
I5
sg23
I15
sg24
I5
sbssg25
S'C\nLOE\xe2\t\x16\xcdh\xfd\xce{@\xbe\x86'
p586
ssS'slingsby_events_urls'
p587
(dp588
g6
(dp589
g8
S'slingsby_events_urls.html'
p590
sg10
S'slingsby.events.urls'
p591
sg12
g13
(g14
g15
NtRp592
(dp593
g18
I1
sg19
I0
sg20
I4
sg21
I0
sg22
I0
sg23
I0
sg24
I0
sbssg25
S'D5\x97\xd2w\x8d^\xa6\x19>4\x01\x9dSN\xbb'
p594
ssS'slingsby_events_admin'
p595
(dp596
g6
(dp597
g8
S'slingsby_events_admin.html'
p598
sg10
S'slingsby.events.admin'
p599
sg12
g13
(g14
g15
NtRp600
(dp601
g18
I1
sg19
I0
sg20
I6
sg21
I0
sg22
I0
sg23
I6
sg24
I0
sbssg25
S'/\x1e\x01mis\x16\xa6e\xf9\xd8L\x04(f\xe3'
p602
ssS'slingsby_archive_tasks'
p603
(dp604
g6
(dp605
g8
S'slingsby_archive_tasks.html'
p606
sg10
S'slingsby.archive.tasks'
p607
sg12
g13
(g14
g15
NtRp608
(dp609
g18
I1
sg19
I15
sg20
I54
sg21
I0
sg22
I4
sg23
I21
sg24
I6
sbssg25
S'\x85\x86\xc1\x8c\xd5j\xdb\xddO$\xca\xacxh\xfb?'
p610
ssS'slingsby_general'
p611
(dp612
g6
(dp613
g8
S'slingsby_general.html'
p614
sg10
S'slingsby.general'
p615
sg12
g13
(g14
g15
NtRp616
(dp617
g18
I1
sg19
I10
sg20
I27
sg21
I0
sg22
I1
sg23
I25
sg24
I9
sbssg25
S'\xd8\x10\xcc\xddLc\x1f\x18\x02\r\xfd,!\xd3\xe6\xe4'
p618
ssS'slingsby_quotes_migrations_0001_initial'
p619
(dp620
g6
(dp621
g8
S'slingsby_quotes_migrations_0001_initial.html'
p622
sg10
S'slingsby.quotes.migrations.0001_initial'
p623
sg12
g13
(g14
g15
NtRp624
(dp625
g18
I1
sg19
I0
sg20
I6
sg21
I0
sg22
I0
sg23
I0
sg24
I0
sbssg25
S'\x0eveI\xb0\xbfV<\x10\x8c\xcf\xe0c\xdd&\xd7'
p626
ssS'slingsby_instagram_models'
p627
(dp628
g6
(dp629
g8
S'slingsby_instagram_models.html'
p630
sg10
S'slingsby.instagram.models'
p631
sg12
g13
(g14
g15
NtRp632
(dp633
g18
I1
sg19
I0
sg20
I31
sg21
I0
sg22
I0
sg23
I30
sg24
I0
sbssg25
S'fP\xc4\xf4\xc0\x8c\xa4\xf7t\xbe\xa3B"*f\xea'
p634
ssS'slingsby_general_models'
p635
(dp636
g6
(dp637
g8
S'slingsby_general_models.html'
p638
sg10
S'slingsby.general.models'
p639
sg12
g13
(g14
g15
NtRp640
(dp641
g18
I1
sg19
I0
sg20
I11
sg21
I0
sg22
I0
sg23
I11
sg24
I0
sbssg25
S'a\x8f\x87\x0fw\xe7\xcc \x06\x89\xc4|i\x8f=a'
p642
ssS'slingsby_general_management_commands'
p643
(dp644
g6
(dp645
g8
S'slingsby_general_management_commands.html'
p646
sg10
S'slingsby.general.management.commands'
p647
sg12
g13
(g14
g15
NtRp648
(dp649
g18
I1
sg19
I0
sg20
I0
sg21
I0
sg22
I0
sg23
I0
sg24
I0
sbssg25
S'\x19g\xdfM\x1a\x019\xaf\x1baIeR\xe5u\xa7'
p650
ssS'slingsby_users_admin'
p651
(dp652
g6
(dp653
g8
S'slingsby_users_admin.html'
p654
sg10
S'slingsby.users.admin'
p655
sg12
g13
(g14
g15
NtRp656
(dp657
g18
I1
sg19
I0
sg20
I0
sg21
I0
sg22
I0
sg23
I0
sg24
I0
sbssg25
S'\xe5P\x11)^\xf4>1D.\x0e\x0b\xa1\xf8[+'
p658
ssS'slingsby_general_migrations'
p659
(dp660
g6
(dp661
g8
S'slingsby_general_migrations.html'
p662
sg10
S'slingsby.general.migrations'
p663
sg12
g13
(g14
g15
NtRp664
(dp665
g18
I1
sg19
I0
sg20
I0
sg21
I0
sg22
I0
sg23
I0
sg24
I0
sbssg25
S'\x19g\xdfM\x1a\x019\xaf\x1baIeR\xe5u\xa7'
p666
ssS'slingsby_archive_models'
p667
(dp668
g6
(dp669
g8
S'slingsby_archive_models.html'
p670
sg10
S'slingsby.archive.models'
p671
sg12
g13
(g14
g15
NtRp672
(dp673
g18
I1
sg19
I12
sg20
I99
sg21
I0
sg22
I1
sg23
I72
sg24
I3
sbssg25
S'\xd3\xe4\x9d\x99\xd3$+\xa0>8\x91\x02\xde5;\xad'
p674
ssS'slingsby'
p675
(dp676
g6
(dp677
g8
S'slingsby.html'
p678
sg10
g675
sg12
g13
(g14
g15
NtRp679
(dp680
g18
I1
sg19
I0
sg20
I6
sg21
I0
sg22
I0
sg23
I6
sg24
I0
sbssg25
S'\x8d:>c\xe0\x94\xf2\xb0\xba\xe5\xbex\xa5;i\t'
p681
sssS'version'
p682
S'3.7.1'
p683
sS'settings'
p684
S'>\xf0sL\x1f\x8a\xb0\xa9\xc0\x0f\xbe6/\x13\x92L'
p685
sS'format'
p686
I1
s.