(dp1
S'files'
p2
(dp3
S'slingsby_quotes'
p4
(dp5
S'index'
p6
(dp7
S'html_filename'
p8
S'slingsby_quotes.html'
p9
sS'name'
p10
S'slingsby.quotes'
p11
sS'nums'
p12
ccopy_reg
_reconstructor
p13
(ccoverage.results
Numbers
p14
c__builtin__
object
p15
NtRp16
(dp17
S'n_files'
p18
I1
sS'n_branches'
p19
I0
sS'n_statements'
p20
I0
sS'n_excluded'
p21
I0
sS'n_partial_branches'
p22
I0
sS'n_missing'
p23
I0
sS'n_missing_branches'
p24
I0
sbssS'hash'
p25
S'\xe5P\x11)^\xf4>1D.\x0e\x0b\xa1\xf8[+'
p26
ssS'slingsby_general_time'
p27
(dp28
g6
(dp29
g8
S'slingsby_general_time.html'
p30
sg10
S'slingsby.general.time'
p31
sg12
g13
(g14
g15
NtRp32
(dp33
g18
I1
sg19
I6
sg20
I45
sg21
I0
sg22
I2
sg23
I34
sg24
I4
sbssg25
S'\xceS1&\xb7V\x06\x1b\x0f\xf72\x8a\xfb\xbc?\xaf'
p34
ssS'slingsby_archive'
p35
(dp36
g6
(dp37
g8
S'slingsby_archive.html'
p38
sg10
S'slingsby.archive'
p39
sg12
g13
(g14
g15
NtRp40
(dp41
g18
I1
sg19
I0
sg20
I0
sg21
I0
sg22
I0
sg23
I0
sg24
I0
sbssg25
S'\xe5P\x11)^\xf4>1D.\x0e\x0b\xa1\xf8[+'
p42
ssS'slingsby_gear'
p43
(dp44
g6
(dp45
g8
S'slingsby_gear.html'
p46
sg10
S'slingsby.gear'
p47
sg12
g13
(g14
g15
NtRp48
(dp49
g18
I1
sg19
I0
sg20
I0
sg21
I0
sg22
I0
sg23
I0
sg24
I0
sbssg25
S'\xe5P\x11)^\xf4>1D.\x0e\x0b\xa1\xf8[+'
p50
ssS'slingsby_settings'
p51
(dp52
g6
(dp53
g8
S'slingsby_settings.html'
p54
sg10
S'slingsby.settings'
p55
sg12
g13
(g14
g15
NtRp56
(dp57
g18
I1
sg19
I8
sg20
I57
sg21
I0
sg22
I1
sg23
I53
sg24
I3
sbssg25
S'\x10\xc4\xb6\x89\xcd\xb9\x04\xd2\xe4\xb8\xe1:\xa9\xc1\x0bL'
p58
ssS'slingsby_quotes_views'
p59
(dp60
g6
(dp61
g8
S'slingsby_quotes_views.html'
p62
sg10
S'slingsby.quotes.views'
p63
sg12
g13
(g14
g15
NtRp64
(dp65
g18
I1
sg19
I10
sg20
I74
sg21
I0
sg22
I0
sg23
I48
sg24
I8
sbssg25
S'\xe5\x86x\xf7\x06\xe5\x9a\xfd\xbf\x05\xb6{\xc9q+\xa1'
p66
ssS'slingsby_musikk_admin'
p67
(dp68
g6
(dp69
g8
S'slingsby_musikk_admin.html'
p70
sg10
S'slingsby.musikk.admin'
p71
sg12
g13
(g14
g15
NtRp72
(dp73
g18
I1
sg19
I4
sg20
I17
sg21
I0
sg22
I0
sg23
I17
sg24
I4
sbssg25
S'S\xb8qt\xcd,\x0b\xd91(v\x0b\x81F#G'
p74
ssS'slingsby_musikk_views'
p75
(dp76
g6
(dp77
g8
S'slingsby_musikk_views.html'
p78
sg10
S'slingsby.musikk.views'
p79
sg12
g13
(g14
g15
NtRp80
(dp81
g18
I1
sg19
I20
sg20
I148
sg21
I0
sg22
I3
sg23
I41
sg24
I9
sbssg25
S'\x8c#\xc0\xf2b\xb2]Q\x99T\xc8_\x0b\x0c\xbb\xc5'
p82
ssS'slingsby_general_templatetags_revved_static'
p83
(dp84
g6
(dp85
g8
S'slingsby_general_templatetags_revved_static.html'
p86
sg10
S'slingsby.general.templatetags.revved_static'
p87
sg12
g13
(g14
g15
NtRp88
(dp89
g18
I1
sg19
I2
sg20
I16
sg21
I0
sg22
I1
sg23
I10
sg24
I1
sbssg25
S'\xd6\xaf\xf2\xb12\x92\x85~\xcd\x16\xdf\x9aZBk#'
p90
ssS'slingsby_gear_admin'
p91
(dp92
g6
(dp93
g8
S'slingsby_gear_admin.html'
p94
sg10
S'slingsby.gear.admin'
p95
sg12
g13
(g14
g15
NtRp96
(dp97
g18
I1
sg19
I0
sg20
I4
sg21
I0
sg22
I0
sg23
I4
sg24
I0
sbssg25
S'\x03\xcfv\'H\x02r\xe4\x1ce\x91\xcd\xe0\xaf\xd9"'
p98
ssS'slingsby_general_context_processors'
p99
(dp100
g6
(dp101
g8
S'slingsby_general_context_processors.html'
p102
sg10
S'slingsby.general.context_processors'
p103
sg12
g13
(g14
g15
NtRp104
(dp105
g18
I1
sg19
I0
sg20
I15
sg21
I0
sg22
I0
sg23
I0
sg24
I0
sbssg25
S'7]\x99\xc7\xf8\xe6\xddl\xd3[\x05\x06\x0f\x1d\xbfs'
p106
ssS'slingsby_tasks_update_archive'
p107
(dp108
g6
(dp109
g8
S'slingsby_tasks_update_archive.html'
p110
sg10
S'slingsby.tasks.update_archive'
p111
sg12
g13
(g14
g15
NtRp112
(dp113
g18
I1
sg19
I16
sg20
I52
sg21
I0
sg22
I0
sg23
I44
sg24
I16
sbssg25
S'a\xd9\xd4/Z\x0c_k#_ ];\xad\x02\x9d'
p114
ssS'slingsby_events_admin'
p115
(dp116
g6
(dp117
g8
S'slingsby_events_admin.html'
p118
sg10
S'slingsby.events.admin'
p119
sg12
g13
(g14
g15
NtRp120
(dp121
g18
I1
sg19
I0
sg20
I5
sg21
I0
sg22
I0
sg23
I5
sg24
I0
sbssg25
S'\x01\xc3=\xd2H\x7f\x89t,\xc1\xa8\x17BKf{'
p122
ssS'slingsby_users_urls'
p123
(dp124
g6
(dp125
g8
S'slingsby_users_urls.html'
p126
sg10
S'slingsby.users.urls'
p127
sg12
g13
(g14
g15
NtRp128
(dp129
g18
I1
sg19
I0
sg20
I4
sg21
I0
sg22
I0
sg23
I0
sg24
I0
sbssg25
S'\x16\xabe)\x8b\x93\xb9\t\xe64\xe6\xc6\x12u\x08\xd3'
p130
ssS'slingsby_musikk_tasks'
p131
(dp132
g6
(dp133
g8
S'slingsby_musikk_tasks.html'
p134
sg10
S'slingsby.musikk.tasks'
p135
sg12
g13
(g14
g15
NtRp136
(dp137
g18
I1
sg19
I25
sg20
I151
sg21
I0
sg22
I5
sg23
I47
sg24
I5
sbssg25
S'1\xf9\xe2\x06\xf2^z\x8c\x9a\x80\xc3\x9b\xdd@qO'
p138
ssS'slingsby_articles_admin'
p139
(dp140
g6
(dp141
g8
S'slingsby_articles_admin.html'
p142
sg10
S'slingsby.articles.admin'
p143
sg12
g13
(g14
g15
NtRp144
(dp145
g18
I1
sg19
I4
sg20
I25
sg21
I0
sg22
I0
sg23
I25
sg24
I4
sbssg25
S'\xf6\xcf\xf9\x92U\x87G4\xea\xc9\xa6\x86\x1e\x08L\x8b'
p146
ssS'slingsby_quotes_context_processors'
p147
(dp148
g6
(dp149
g8
S'slingsby_quotes_context_processors.html'
p150
sg10
S'slingsby.quotes.context_processors'
p151
sg12
g13
(g14
g15
NtRp152
(dp153
g18
I1
sg19
I6
sg20
I20
sg21
I0
sg22
I1
sg23
I1
sg24
I1
sbssg25
S'\xe2\xf1\xc2F\x91\xce\x9e\x9a\xd4\xec\x02\x0b:\xb6\xe7\xfd'
p154
ssS'slingsby_instagram_admin'
p155
(dp156
g6
(dp157
g8
S'slingsby_instagram_admin.html'
p158
sg10
S'slingsby.instagram.admin'
p159
sg12
g13
(g14
g15
NtRp160
(dp161
g18
I1
sg19
I0
sg20
I4
sg21
I0
sg22
I0
sg23
I4
sg24
I0
sbssg25
S'<\xa7A\xd9-\x81\xdc\x1c\xd4\x17;4+\xc6\xd3\xdd'
p162
ssS'slingsby_general_admin'
p163
(dp164
g6
(dp165
g8
S'slingsby_general_admin.html'
p166
sg10
S'slingsby.general.admin'
p167
sg12
g13
(g14
g15
NtRp168
(dp169
g18
I1
sg19
I0
sg20
I3
sg21
I0
sg22
I0
sg23
I3
sg24
I0
sbssg25
S'\r\xcb\xd5u\xb1\xddd\xa3td\xc8\x17\x1e\xcdx '
p170
ssS'slingsby_general_middleware'
p171
(dp172
g6
(dp173
g8
S'slingsby_general_middleware.html'
p174
sg10
S'slingsby.general.middleware'
p175
sg12
g13
(g14
g15
NtRp176
(dp177
g18
I1
sg19
I12
sg20
I24
sg21
I0
sg22
I0
sg23
I0
sg24
I0
sbssg25
S'\xbfc\xe6\xd0\x91*%\xc6\x04\x86\xafj\xed\xb1/5'
p178
ssS'slingsby_general_widgets'
p179
(dp180
g6
(dp181
g8
S'slingsby_general_widgets.html'
p182
sg10
S'slingsby.general.widgets'
p183
sg12
g13
(g14
g15
NtRp184
(dp185
g18
I1
sg19
I2
sg20
I19
sg21
I0
sg22
I0
sg23
I19
sg24
I2
sbssg25
S'\x19kf3\xf6jU\xf8\x16z\x055ux\xc4\xed'
p186
ssS'slingsby_musikk'
p187
(dp188
g6
(dp189
g8
S'slingsby_musikk.html'
p190
sg10
S'slingsby.musikk'
p191
sg12
g13
(g14
g15
NtRp192
(dp193
g18
I1
sg19
I0
sg20
I0
sg21
I0
sg22
I0
sg23
I0
sg24
I0
sbssg25
S'\xe5P\x11)^\xf4>1D.\x0e\x0b\xa1\xf8[+'
p194
ssS'slingsby_general_cache'
p195
(dp196
g6
(dp197
g8
S'slingsby_general_cache.html'
p198
sg10
S'slingsby.general.cache'
p199
sg12
g13
(g14
g15
NtRp200
(dp201
g18
I1
sg19
I12
sg20
I62
sg21
I0
sg22
I4
sg23
I31
sg24
I4
sbssg25
S'\x02\xeaRx6E\xdb\x10\xf0\x19\xa7\xd2N\x15/*'
p202
ssS'slingsby_articles_models'
p203
(dp204
g6
(dp205
g8
S'slingsby_articles_models.html'
p206
sg10
S'slingsby.articles.models'
p207
sg12
g13
(g14
g15
NtRp208
(dp209
g18
I1
sg19
I12
sg20
I104
sg21
I0
sg22
I2
sg23
I93
sg24
I10
sbssg25
S"k\x98\xc1&'\x86\xe5aC\xe46\x10,J\xde\xcc"
p210
ssS'slingsby_general_templatetags_disqus_identifier'
p211
(dp212
g6
(dp213
g8
S'slingsby_general_templatetags_disqus_identifier.html'
p214
sg10
S'slingsby.general.templatetags.disqus_identifier'
p215
sg12
g13
(g14
g15
NtRp216
(dp217
g18
I1
sg19
I0
sg20
I6
sg21
I0
sg22
I0
sg23
I0
sg24
I0
sbssg25
S' q4\xe4m\xf4\x12\xcf\x14\xd3`\x1a\x9e!&l'
p218
ssS'slingsby_articles_urls'
p219
(dp220
g6
(dp221
g8
S'slingsby_articles_urls.html'
p222
sg10
S'slingsby.articles.urls'
p223
sg12
g13
(g14
g15
NtRp224
(dp225
g18
I1
sg19
I4
sg20
I7
sg21
I0
sg22
I2
sg23
I1
sg24
I2
sbssg25
S'\x9a\xa6\xfaE!\xbe\x8c6\xe0\xc2N\x85!vY\x0c'
p226
ssS'slingsby_articles_widgets'
p227
(dp228
g6
(dp229
g8
S'slingsby_articles_widgets.html'
p230
sg10
S'slingsby.articles.widgets'
p231
sg12
g13
(g14
g15
NtRp232
(dp233
g18
I1
sg19
I0
sg20
I8
sg21
I0
sg22
I0
sg23
I8
sg24
I0
sbssg25
S'\xdeZ>\xdfP\xe2\x13a\xed\x7f\x16\xc0\xcb\xf4\xe5h'
p234
ssS'slingsby_instagram_urls'
p235
(dp236
g6
(dp237
g8
S'slingsby_instagram_urls.html'
p238
sg10
S'slingsby.instagram.urls'
p239
sg12
g13
(g14
g15
NtRp240
(dp241
g18
I1
sg19
I0
sg20
I3
sg21
I0
sg22
I0
sg23
I0
sg24
I0
sbssg25
S'\x17\x1f+\xe1\xffr\xda\\\x98\xbd\xf6\xe2\x821\xd4\xab'
p242
ssS'slingsby_musikk_urls'
p243
(dp244
g6
(dp245
g8
S'slingsby_musikk_urls.html'
p246
sg10
S'slingsby.musikk.urls'
p247
sg12
g13
(g14
g15
NtRp248
(dp249
g18
I1
sg19
I0
sg20
I5
sg21
I0
sg22
I0
sg23
I0
sg24
I0
sbssg25
S'\x1f\xafq/\n\xa7\x9d,FQ\xc8\xeb\x99BO\xcf'
p250
ssS'slingsby_tasks_urls'
p251
(dp252
g6
(dp253
g8
S'slingsby_tasks_urls.html'
p254
sg10
S'slingsby.tasks.urls'
p255
sg12
g13
(g14
g15
NtRp256
(dp257
g18
I1
sg19
I0
sg20
I2
sg21
I0
sg22
I0
sg23
I0
sg24
I0
sbssg25
S'\xd0\x9b\xe85:\x88\x8d\xd4\xfe5QA\x1e\xa3)\xdf'
p258
ssS'slingsby_events_models'
p259
(dp260
g6
(dp261
g8
S'slingsby_events_models.html'
p262
sg10
S'slingsby.events.models'
p263
sg12
g13
(g14
g15
NtRp264
(dp265
g18
I1
sg19
I32
sg20
I153
sg21
I0
sg22
I2
sg23
I147
sg24
I30
sbssg25
S'\xed\n<\xe7\x84\rf\x01\xce{\xba\xbb\xber\xd0\x82'
p266
ssS'slingsby_urls'
p267
(dp268
g6
(dp269
g8
S'slingsby_urls.html'
p270
sg10
S'slingsby.urls'
p271
sg12
g13
(g14
g15
NtRp272
(dp273
g18
I1
sg19
I6
sg20
I23
sg21
I0
sg22
I2
sg23
I5
sg24
I4
sbssg25
S'0+\xec(\xd3D\xc7o\xbaf\x9a\x92{L\x8f\x07'
p274
ssS'slingsby_users_views'
p275
(dp276
g6
(dp277
g8
S'slingsby_users_views.html'
p278
sg10
S'slingsby.users.views'
p279
sg12
g13
(g14
g15
NtRp280
(dp281
g18
I1
sg19
I14
sg20
I63
sg21
I0
sg22
I4
sg23
I17
sg24
I10
sbssg25
S'\xcf(wl\xae\xa4\xd8\xd8\x16\xcc& \xbf\xfe\xe4\x08'
p282
ssS'slingsby_articles'
p283
(dp284
g6
(dp285
g8
S'slingsby_articles.html'
p286
sg10
S'slingsby.articles'
p287
sg12
g13
(g14
g15
NtRp288
(dp289
g18
I1
sg19
I0
sg20
I0
sg21
I0
sg22
I0
sg23
I0
sg24
I0
sbssg25
S'\xe5P\x11)^\xf4>1D.\x0e\x0b\xa1\xf8[+'
p290
ssS'slingsby_general_management'
p291
(dp292
g6
(dp293
g8
S'slingsby_general_management.html'
p294
sg10
S'slingsby.general.management'
p295
sg12
g13
(g14
g15
NtRp296
(dp297
g18
I1
sg19
I0
sg20
I0
sg21
I0
sg22
I0
sg23
I0
sg24
I0
sbssg25
S'\x19g\xdfM\x1a\x019\xaf\x1baIeR\xe5u\xa7'
p298
ssS'slingsby_instagram_tasks'
p299
(dp300
g6
(dp301
g8
S'slingsby_instagram_tasks.html'
p302
sg10
S'slingsby.instagram.tasks'
p303
sg12
g13
(g14
g15
NtRp304
(dp305
g18
I1
sg19
I8
sg20
I35
sg21
I0
sg22
I0
sg23
I16
sg24
I0
sbssg25
S'\xf1\xcdF\x89\x88\xd9\xe8\xc9\x9b]\xea2%\x951\xe8'
p306
ssS'slingsby_quotes_models'
p307
(dp308
g6
(dp309
g8
S'slingsby_quotes_models.html'
p310
sg10
S'slingsby.quotes.models'
p311
sg12
g13
(g14
g15
NtRp312
(dp313
g18
I1
sg19
I6
sg20
I30
sg21
I0
sg22
I0
sg23
I30
sg24
I6
sbssg25
S'\xd2\x04=\x90\xc1{\x07\x90"\xbbvho\xf7\xf6&'
p314
ssS'slingsby_archive_admin'
p315
(dp316
g6
(dp317
g8
S'slingsby_archive_admin.html'
p318
sg10
S'slingsby.archive.admin'
p319
sg12
g13
(g14
g15
NtRp320
(dp321
g18
I1
sg19
I0
sg20
I5
sg21
I0
sg22
I0
sg23
I5
sg24
I0
sbssg25
S'BG\xd1\xed\x15\x90\xdb\xcd)-\xcc\xdf-\x1a]n'
p322
ssS'slingsby_archive_urls'
p323
(dp324
g6
(dp325
g8
S'slingsby_archive_urls.html'
p326
sg10
S'slingsby.archive.urls'
p327
sg12
g13
(g14
g15
NtRp328
(dp329
g18
I1
sg19
I0
sg20
I3
sg21
I0
sg22
I0
sg23
I0
sg24
I0
sbssg25
S"\xb4\xf8NU'\x05s\xdc\xa9\x1f\xd6ne\xf6\x10`"
p330
ssS'slingsby_quotes_urls'
p331
(dp332
g6
(dp333
g8
S'slingsby_quotes_urls.html'
p334
sg10
S'slingsby.quotes.urls'
p335
sg12
g13
(g14
g15
NtRp336
(dp337
g18
I1
sg19
I0
sg20
I4
sg21
I0
sg22
I0
sg23
I0
sg24
I0
sbssg25
S'\tY&\xc6\xbeY+)Cd\xba?\xb8\xb8m\xeb'
p338
ssS'slingsby_celery'
p339
(dp340
g6
(dp341
g8
S'slingsby_celery.html'
p342
sg10
S'slingsby.celery'
p343
sg12
g13
(g14
g15
NtRp344
(dp345
g18
I1
sg19
I2
sg20
I8
sg21
I0
sg22
I0
sg23
I8
sg24
I2
sbssg25
S'\xf0(e\x8evgPS\x9d\xc2\x0c+\x80a=\x82'
p346
ssS'slingsby_quotes_admin'
p347
(dp348
g6
(dp349
g8
S'slingsby_quotes_admin.html'
p350
sg10
S'slingsby.quotes.admin'
p351
sg12
g13
(g14
g15
NtRp352
(dp353
g18
I1
sg19
I0
sg20
I10
sg21
I0
sg22
I0
sg23
I10
sg24
I0
sbssg25
S'U\x04fy\x06J\x043\x14Q\x80c\x82fW2'
p354
ssS'slingsby_gear_urls'
p355
(dp356
g6
(dp357
g8
S'slingsby_gear_urls.html'
p358
sg10
S'slingsby.gear.urls'
p359
sg12
g13
(g14
g15
NtRp360
(dp361
g18
I1
sg19
I0
sg20
I3
sg21
I0
sg22
I0
sg23
I0
sg24
I0
sbssg25
S'\x08\x9d\xa0A/\xf5\x9a\x8cO\xe1\xb16L\x9eX\xaa'
p362
ssS'slingsby'
p363
(dp364
g6
(dp365
g8
S'slingsby.html'
p366
sg10
g363
sg12
g13
(g14
g15
NtRp367
(dp368
g18
I1
sg19
I0
sg20
I6
sg21
I0
sg22
I0
sg23
I6
sg24
I0
sbssg25
S'\x8d:>c\xe0\x94\xf2\xb0\xba\xe5\xbex\xa5;i\t'
p369
ssS'slingsby_tasks'
p370
(dp371
g6
(dp372
g8
S'slingsby_tasks.html'
p373
sg10
S'slingsby.tasks'
p374
sg12
g13
(g14
g15
NtRp375
(dp376
g18
I1
sg19
I0
sg20
I0
sg21
I0
sg22
I0
sg23
I0
sg24
I0
sbssg25
S'\xe5P\x11)^\xf4>1D.\x0e\x0b\xa1\xf8[+'
p377
ssS'slingsby_articles_views'
p378
(dp379
g6
(dp380
g8
S'slingsby_articles_views.html'
p381
sg10
S'slingsby.articles.views'
p382
sg12
g13
(g14
g15
NtRp383
(dp384
g18
I1
sg19
I10
sg20
I58
sg21
I0
sg22
I0
sg23
I0
sg24
I0
sbssg25
S'\xe8\x83\xbe\xd3\x8b\xd9\xe8\x973\x1d\xcaZ\x8d\xe6\x128'
p385
ssS'slingsby_events'
p386
(dp387
g6
(dp388
g8
S'slingsby_events.html'
p389
sg10
S'slingsby.events'
p390
sg12
g13
(g14
g15
NtRp391
(dp392
g18
I1
sg19
I0
sg20
I0
sg21
I0
sg22
I0
sg23
I0
sg24
I0
sbssg25
S'\xe5P\x11)^\xf4>1D.\x0e\x0b\xa1\xf8[+'
p393
ssS'slingsby_events_views'
p394
(dp395
g6
(dp396
g8
S'slingsby_events_views.html'
p397
sg10
S'slingsby.events.views'
p398
sg12
g13
(g14
g15
NtRp399
(dp400
g18
I1
sg19
I0
sg20
I57
sg21
I0
sg22
I0
sg23
I22
sg24
I0
sbssg25
S'+U\x8c\x97\t\x94\xd0\x8aX\xe3\xf2\x848\x14\xbf\xa7'
p401
ssS'slingsby_general_mixins'
p402
(dp403
g6
(dp404
g8
S'slingsby_general_mixins.html'
p405
sg10
S'slingsby.general.mixins'
p406
sg12
g13
(g14
g15
NtRp407
(dp408
g18
I1
sg19
I4
sg20
I15
sg21
I0
sg22
I1
sg23
I1
sg24
I1
sbssg25
S'\x06\x16zpN\xfa\x01\x15\xdb\x99\xef\x01\x9f\xb5[\xda'
p409
ssS'slingsby_instagram_views'
p410
(dp411
g6
(dp412
g8
S'slingsby_instagram_views.html'
p413
sg10
S'slingsby.instagram.views'
p414
sg12
g13
(g14
g15
NtRp415
(dp416
g18
I1
sg19
I0
sg20
I13
sg21
I0
sg22
I0
sg23
I0
sg24
I0
sbssg25
S'\x9eQt\x9eyD\x13\xfd\x8ey\x17\xb2\x13\xdbs '
p417
ssS'slingsby_users'
p418
(dp419
g6
(dp420
g8
S'slingsby_users.html'
p421
sg10
S'slingsby.users'
p422
sg12
g13
(g14
g15
NtRp423
(dp424
g18
I1
sg19
I0
sg20
I9
sg21
I0
sg22
I0
sg23
I9
sg24
I0
sbssg25
S'\x98N\x04#\x8e\xe5\x93R\xff(\xbc\xb0\xc5\xc1M%'
p425
ssS'slingsby_general_views'
p426
(dp427
g6
(dp428
g8
S'slingsby_general_views.html'
p429
sg10
S'slingsby.general.views'
p430
sg12
g13
(g14
g15
NtRp431
(dp432
g18
I1
sg19
I16
sg20
I32
sg21
I0
sg22
I5
sg23
I3
sg24
I5
sbssg25
S'\x82qs\xc4j\xb3\xed\xa7\xce\x07\xb9(\xdd`\x15['
p433
ssS'slingsby_instagram'
p434
(dp435
g6
(dp436
g8
S'slingsby_instagram.html'
p437
sg10
S'slingsby.instagram'
p438
sg12
g13
(g14
g15
NtRp439
(dp440
g18
I1
sg19
I0
sg20
I0
sg21
I0
sg22
I0
sg23
I0
sg24
I0
sbssg25
S'\xe5P\x11)^\xf4>1D.\x0e\x0b\xa1\xf8[+'
p441
ssS'slingsby_general_templatetags_shorten'
p442
(dp443
g6
(dp444
g8
S'slingsby_general_templatetags_shorten.html'
p445
sg10
S'slingsby.general.templatetags.shorten'
p446
sg12
g13
(g14
g15
NtRp447
(dp448
g18
I1
sg19
I4
sg20
I13
sg21
I0
sg22
I2
sg23
I5
sg24
I2
sbssg25
S"\xc8\xeb\x04h9h\x06'\x85\x83\xdcmYmf<"
p449
ssS'slingsby_users_models'
p450
(dp451
g6
(dp452
g8
S'slingsby_users_models.html'
p453
sg10
S'slingsby.users.models'
p454
sg12
g13
(g14
g15
NtRp455
(dp456
g18
I1
sg19
I0
sg20
I0
sg21
I0
sg22
I0
sg23
I0
sg24
I0
sbssg25
S'\xe5P\x11)^\xf4>1D.\x0e\x0b\xa1\xf8[+'
p457
ssS'slingsby_archive_views'
p458
(dp459
g6
(dp460
g8
S'slingsby_archive_views.html'
p461
sg10
S'slingsby.archive.views'
p462
sg12
g13
(g14
g15
NtRp463
(dp464
g18
I1
sg19
I2
sg20
I24
sg21
I0
sg22
I0
sg23
I10
sg24
I0
sbssg25
S'W\x87\xbb^\xad&F\r?\x9bk\x94\x80\x13\xdb\xc3'
p465
ssS'slingsby_events_urls'
p466
(dp467
g6
(dp468
g8
S'slingsby_events_urls.html'
p469
sg10
S'slingsby.events.urls'
p470
sg12
g13
(g14
g15
NtRp471
(dp472
g18
I1
sg19
I0
sg20
I4
sg21
I0
sg22
I0
sg23
I0
sg24
I0
sbssg25
S'D5\x97\xd2w\x8d^\xa6\x19>4\x01\x9dSN\xbb'
p473
ssS'slingsby_gear_models'
p474
(dp475
g6
(dp476
g8
S'slingsby_gear_models.html'
p477
sg10
S'slingsby.gear.models'
p478
sg12
g13
(g14
g15
NtRp479
(dp480
g18
I1
sg19
I0
sg20
I21
sg21
I0
sg22
I0
sg23
I21
sg24
I0
sbssg25
S'\xbe\x89\x8a\x89\xed\xbb\x90\xe9\x1f\x18\xb82\xe6\xc7\xa6\xcf'
p481
ssS'slingsby_musikk_models'
p482
(dp483
g6
(dp484
g8
S'slingsby_musikk_models.html'
p485
sg10
S'slingsby.musikk.models'
p486
sg12
g13
(g14
g15
NtRp487
(dp488
g18
I1
sg19
I0
sg20
I53
sg21
I0
sg22
I0
sg23
I49
sg24
I0
sbssg25
S'\xff\x91\x9cL\x1e|K,\x08\xd2#p\xadw\xd8h'
p489
ssS'slingsby_general'
p490
(dp491
g6
(dp492
g8
S'slingsby_general.html'
p493
sg10
S'slingsby.general'
p494
sg12
g13
(g14
g15
NtRp495
(dp496
g18
I1
sg19
I10
sg20
I27
sg21
I0
sg22
I1
sg23
I25
sg24
I9
sbssg25
S'\xd8\x10\xcc\xddLc\x1f\x18\x02\r\xfd,!\xd3\xe6\xe4'
p497
ssS'slingsby_instagram_models'
p498
(dp499
g6
(dp500
g8
S'slingsby_instagram_models.html'
p501
sg10
S'slingsby.instagram.models'
p502
sg12
g13
(g14
g15
NtRp503
(dp504
g18
I1
sg19
I0
sg20
I31
sg21
I0
sg22
I0
sg23
I30
sg24
I0
sbssg25
S'fP\xc4\xf4\xc0\x8c\xa4\xf7t\xbe\xa3B"*f\xea'
p505
ssS'slingsby_general_models'
p506
(dp507
g6
(dp508
g8
S'slingsby_general_models.html'
p509
sg10
S'slingsby.general.models'
p510
sg12
g13
(g14
g15
NtRp511
(dp512
g18
I1
sg19
I0
sg20
I21
sg21
I0
sg22
I0
sg23
I21
sg24
I0
sbssg25
S'\xaf*\xb8\xef\xf0\x948{=\xa1\x19H\xda\x9e\xcfV'
p513
ssS'slingsby_general_management_commands'
p514
(dp515
g6
(dp516
g8
S'slingsby_general_management_commands.html'
p517
sg10
S'slingsby.general.management.commands'
p518
sg12
g13
(g14
g15
NtRp519
(dp520
g18
I1
sg19
I0
sg20
I0
sg21
I0
sg22
I0
sg23
I0
sg24
I0
sbssg25
S'\x19g\xdfM\x1a\x019\xaf\x1baIeR\xe5u\xa7'
p521
ssS'slingsby_users_admin'
p522
(dp523
g6
(dp524
g8
S'slingsby_users_admin.html'
p525
sg10
S'slingsby.users.admin'
p526
sg12
g13
(g14
g15
NtRp527
(dp528
g18
I1
sg19
I0
sg20
I0
sg21
I0
sg22
I0
sg23
I0
sg24
I0
sbssg25
S'\xe5P\x11)^\xf4>1D.\x0e\x0b\xa1\xf8[+'
p529
ssS'slingsby_general_templatetags'
p530
(dp531
g6
(dp532
g8
S'slingsby_general_templatetags.html'
p533
sg10
S'slingsby.general.templatetags'
p534
sg12
g13
(g14
g15
NtRp535
(dp536
g18
I1
sg19
I0
sg20
I0
sg21
I0
sg22
I0
sg23
I0
sg24
I0
sbssg25
S'\xe5P\x11)^\xf4>1D.\x0e\x0b\xa1\xf8[+'
p537
ssS'slingsby_archive_models'
p538
(dp539
g6
(dp540
g8
S'slingsby_archive_models.html'
p541
sg10
S'slingsby.archive.models'
p542
sg12
g13
(g14
g15
NtRp543
(dp544
g18
I1
sg19
I2
sg20
I40
sg21
I0
sg22
I0
sg23
I40
sg24
I2
sbssg25
S'\x9d\xe5\xf2\xb8?\xfc!\x8d\xab\x8dD\xa0j\xe7\x04\xf6'
p545
ssS'slingsby_gear_views'
p546
(dp547
g6
(dp548
g8
S'slingsby_gear_views.html'
p549
sg10
S'slingsby.gear.views'
p550
sg12
g13
(g14
g15
NtRp551
(dp552
g18
I1
sg19
I2
sg20
I31
sg21
I0
sg22
I0
sg23
I15
sg24
I0
sbssg25
S'!m\xf9\x17\xb0wM\xb2\x1f\xd6\xfb\xa3\xf1\xacK\n'
p553
sssS'version'
p554
S'3.7.1'
p555
sS'settings'
p556
S'>\xf0sL\x1f\x8a\xb0\xa9\xc0\x0f\xbe6/\x13\x92L'
p557
sS'format'
p558
I1
s.