(dp1
S'files'
p2
(dp3
S'slingsby_general_time'
p4
(dp5
S'index'
p6
(dp7
S'html_filename'
p8
S'slingsby_general_time.html'
p9
sS'name'
p10
S'slingsby/general/time'
p11
sS'nums'
p12
ccopy_reg
_reconstructor
p13
(ccoverage.results
Numbers
p14
c__builtin__
object
p15
NtRp16
(dp17
S'n_files'
p18
I1
sS'n_branches'
p19
I0
sS'n_statements'
p20
I45
sS'n_excluded'
p21
I0
sS'n_partial_branches'
p22
I0
sS'n_missing'
p23
I18
sS'n_missing_branches'
p24
I0
sbssS'hash'
p25
S'\xd1X\xb4\xb5Q\xb5 \xb5\x92\xfb\xf6K\xa0\xac\x9b\r'
p26
ssS'slingsby_quotes_migrations___init__'
p27
(dp28
g6
(dp29
g8
S'slingsby_quotes_migrations___init__.html'
p30
sg10
S'slingsby/quotes/migrations/__init__'
p31
sg12
g13
(g14
g15
NtRp32
(dp33
g18
I1
sg19
I0
sg20
I0
sg21
I0
sg22
I0
sg23
I0
sg24
I0
sbssg25
S'\xca\xf5\x9f\x7f\x88\xdfa\x831|T\x1d\xbc}\xa5v'
p34
ssS'slingsby_musikk___init__'
p35
(dp36
g6
(dp37
g8
S'slingsby_musikk___init__.html'
p38
sg10
S'slingsby/musikk/__init__'
p39
sg12
g13
(g14
g15
NtRp40
(dp41
g18
I1
sg19
I0
sg20
I0
sg21
I0
sg22
I0
sg23
I0
sg24
I0
sbssg25
S'\xca\xf5\x9f\x7f\x88\xdfa\x831|T\x1d\xbc}\xa5v'
p42
ssS'slingsby_musikk_views'
p43
(dp44
g6
(dp45
g8
S'slingsby_musikk_views.html'
p46
sg10
S'slingsby/musikk/views'
p47
sg12
g13
(g14
g15
NtRp48
(dp49
g18
I1
sg19
I0
sg20
I152
sg21
I0
sg22
I0
sg23
I26
sg24
I0
sbssg25
S"+^\xd9|\xd0\xffp\x95\x80^2t\xb6i'\x90"
p50
ssS'slingsby_general_management_commands_bootstrap'
p51
(dp52
g6
(dp53
g8
S'slingsby_general_management_commands_bootstrap.html'
p54
sg10
S'slingsby/general/management/commands/bootstrap'
p55
sg12
g13
(g14
g15
NtRp56
(dp57
g18
I1
sg19
I0
sg20
I27
sg21
I0
sg22
I0
sg23
I27
sg24
I0
sbssg25
S'x\xe2\x1b\xbd\xf7\xf9ET\xc1^\xe4\xa2[\x07\xec\xd4'
p58
ssS'slingsby_gear___init__'
p59
(dp60
g6
(dp61
g8
S'slingsby_gear___init__.html'
p62
sg10
S'slingsby/gear/__init__'
p63
sg12
g13
(g14
g15
NtRp64
(dp65
g18
I1
sg19
I0
sg20
I0
sg21
I0
sg22
I0
sg23
I0
sg24
I0
sbssg25
S'\xca\xf5\x9f\x7f\x88\xdfa\x831|T\x1d\xbc}\xa5v'
p66
ssS'slingsby_articles_migrations_0002_auto_20150305_2339'
p67
(dp68
g6
(dp69
g8
S'slingsby_articles_migrations_0002_auto_20150305_2339.html'
p70
sg10
S'slingsby/articles/migrations/0002_auto_20150305_2339'
p71
sg12
g13
(g14
g15
NtRp72
(dp73
g18
I1
sg19
I0
sg20
I5
sg21
I0
sg22
I0
sg23
I0
sg24
I0
sbssg25
S'"\x98\x83|R\xae\'+-\x12\x96\xe8\xcc\xef\xb7\xeb'
p74
ssS'slingsby_events_bootstrap'
p75
(dp76
g6
(dp77
g8
S'slingsby_events_bootstrap.html'
p78
sg10
S'slingsby/events/bootstrap'
p79
sg12
g13
(g14
g15
NtRp80
(dp81
g18
I1
sg19
I0
sg20
I6
sg21
I0
sg22
I0
sg23
I6
sg24
I0
sbssg25
S'\xc5\xe7\xcd\x86^\xde\xe9[\xce\xcc\x8fw\x11Y\xc8-'
p82
ssS'slingsby_general_tests'
p83
(dp84
g6
(dp85
g8
S'slingsby_general_tests.html'
p86
sg10
S'slingsby/general/tests'
p87
sg12
g13
(g14
g15
NtRp88
(dp89
g18
I1
sg19
I0
sg20
I132
sg21
I0
sg22
I0
sg23
I0
sg24
I0
sbssg25
S'|t\x07\xf8N\x8fA\x94\\\xebL\x89\xe9\x95>W'
p90
ssS'slingsby_articles_bootstrap'
p91
(dp92
g6
(dp93
g8
S'slingsby_articles_bootstrap.html'
p94
sg10
S'slingsby/articles/bootstrap'
p95
sg12
g13
(g14
g15
NtRp96
(dp97
g18
I1
sg19
I0
sg20
I15
sg21
I0
sg22
I0
sg23
I15
sg24
I0
sbssg25
S'd\xbc\x192\x08\x94&\xbc\xbe\xfd\xa2\xb6\xf3-\x9b\x0b'
p98
ssS'slingsby_users_views'
p99
(dp100
g6
(dp101
g8
S'slingsby_users_views.html'
p102
sg10
S'slingsby/users/views'
p103
sg12
g13
(g14
g15
NtRp104
(dp105
g18
I1
sg19
I0
sg20
I51
sg21
I12
sg22
I0
sg23
I9
sg24
I0
sbssg25
S'yA\x9e!e\xb3\xbb\xdds5P\xf1)Z\xf1\x89'
p106
ssS'slingsby_events___init__'
p107
(dp108
g6
(dp109
g8
S'slingsby_events___init__.html'
p110
sg10
S'slingsby/events/__init__'
p111
sg12
g13
(g14
g15
NtRp112
(dp113
g18
I1
sg19
I0
sg20
I0
sg21
I0
sg22
I0
sg23
I0
sg24
I0
sbssg25
S'\xca\xf5\x9f\x7f\x88\xdfa\x831|T\x1d\xbc}\xa5v'
p114
ssS'slingsby_quotes_urls'
p115
(dp116
g6
(dp117
g8
S'slingsby_quotes_urls.html'
p118
sg10
S'slingsby/quotes/urls'
p119
sg12
g13
(g14
g15
NtRp120
(dp121
g18
I1
sg19
I0
sg20
I4
sg21
I0
sg22
I0
sg23
I0
sg24
I0
sbssg25
S'\xe8\xb4\xe80\x0cT\x94\xb3,nj\xcdi\xfe\xf8\x01'
p122
ssS'slingsby_gear_urls'
p123
(dp124
g6
(dp125
g8
S'slingsby_gear_urls.html'
p126
sg10
S'slingsby/gear/urls'
p127
sg12
g13
(g14
g15
NtRp128
(dp129
g18
I1
sg19
I0
sg20
I3
sg21
I0
sg22
I0
sg23
I0
sg24
I0
sbssg25
S'\xc4\xbdl$\xa0E\xbc.\x0eN\x08\xe2\x0f\xf2\xc1l'
p130
ssS'slingsby_events_views'
p131
(dp132
g6
(dp133
g8
S'slingsby_events_views.html'
p134
sg10
S'slingsby/events/views'
p135
sg12
g13
(g14
g15
NtRp136
(dp137
g18
I1
sg19
I0
sg20
I57
sg21
I0
sg22
I0
sg23
I14
sg24
I0
sbssg25
S'd\xa7\xa7\x10\x86\x1d\xb0Z\xb7\xdc\xe6f]1".'
p138
ssS'slingsby_instagram_urls'
p139
(dp140
g6
(dp141
g8
S'slingsby_instagram_urls.html'
p142
sg10
S'slingsby/instagram/urls'
p143
sg12
g13
(g14
g15
NtRp144
(dp145
g18
I1
sg19
I0
sg20
I3
sg21
I0
sg22
I0
sg23
I0
sg24
I0
sbssg25
S'j\xcb\xfbF\xec\x085\x1d\xb2v\x831\xb9\x92\\\x00'
p146
ssS'slingsby_general_migrations___init__'
p147
(dp148
g6
(dp149
g8
S'slingsby_general_migrations___init__.html'
p150
sg10
S'slingsby/general/migrations/__init__'
p151
sg12
g13
(g14
g15
NtRp152
(dp153
g18
I1
sg19
I0
sg20
I0
sg21
I0
sg22
I0
sg23
I0
sg24
I0
sbssg25
S'\xca\xf5\x9f\x7f\x88\xdfa\x831|T\x1d\xbc}\xa5v'
p154
ssS'slingsby_general_views'
p155
(dp156
g6
(dp157
g8
S'slingsby_general_views.html'
p158
sg10
S'slingsby/general/views'
p159
sg12
g13
(g14
g15
NtRp160
(dp161
g18
I1
sg19
I0
sg20
I38
sg21
I0
sg22
I0
sg23
I3
sg24
I0
sbssg25
S'\xb5p\xe2\xf7\x18\xbe\xd6{=\xc4{d\x12\xff$8'
p162
ssS'slingsby_events_urls'
p163
(dp164
g6
(dp165
g8
S'slingsby_events_urls.html'
p166
sg10
S'slingsby/events/urls'
p167
sg12
g13
(g14
g15
NtRp168
(dp169
g18
I1
sg19
I0
sg20
I4
sg21
I0
sg22
I0
sg23
I0
sg24
I0
sbssg25
S'o\xf7\xa8\x15\x15\xe1\xb7<\x1eX\x8d\xf6\xafP\xe5\x91'
p170
ssS'slingsby_gear_models'
p171
(dp172
g6
(dp173
g8
S'slingsby_gear_models.html'
p174
sg10
S'slingsby/gear/models'
p175
sg12
g13
(g14
g15
NtRp176
(dp177
g18
I1
sg19
I0
sg20
I21
sg21
I0
sg22
I0
sg23
I3
sg24
I0
sbssg25
S'\xcfxFT\xd7R\x06c\xb7\x99\x08i\x02\x03I\xae'
p178
ssS'slingsby_instagram_migrations___init__'
p179
(dp180
g6
(dp181
g8
S'slingsby_instagram_migrations___init__.html'
p182
sg10
S'slingsby/instagram/migrations/__init__'
p183
sg12
g13
(g14
g15
NtRp184
(dp185
g18
I1
sg19
I0
sg20
I0
sg21
I0
sg22
I0
sg23
I0
sg24
I0
sbssg25
S'\xca\xf5\x9f\x7f\x88\xdfa\x831|T\x1d\xbc}\xa5v'
p186
ssS'slingsby_users_models'
p187
(dp188
g6
(dp189
g8
S'slingsby_users_models.html'
p190
sg10
S'slingsby/users/models'
p191
sg12
g13
(g14
g15
NtRp192
(dp193
g18
I1
sg19
I0
sg20
I0
sg21
I0
sg22
I0
sg23
I0
sg24
I0
sbssg25
S'\xca\xf5\x9f\x7f\x88\xdfa\x831|T\x1d\xbc}\xa5v'
p194
ssS'slingsby_general_management_commands___init__'
p195
(dp196
g6
(dp197
g8
S'slingsby_general_management_commands___init__.html'
p198
sg10
S'slingsby/general/management/commands/__init__'
p199
sg12
g13
(g14
g15
NtRp200
(dp201
g18
I1
sg19
I0
sg20
I0
sg21
I0
sg22
I0
sg23
I0
sg24
I0
sbssg25
S'\xca\xf5\x9f\x7f\x88\xdfa\x831|T\x1d\xbc}\xa5v'
p202
ssS'slingsby_events_migrations___init__'
p203
(dp204
g6
(dp205
g8
S'slingsby_events_migrations___init__.html'
p206
sg10
S'slingsby/events/migrations/__init__'
p207
sg12
g13
(g14
g15
NtRp208
(dp209
g18
I1
sg19
I0
sg20
I0
sg21
I0
sg22
I0
sg23
I0
sg24
I0
sbssg25
S'\xca\xf5\x9f\x7f\x88\xdfa\x831|T\x1d\xbc}\xa5v'
p210
ssS'slingsby_general_migrations_0002_auto_20141014_0039'
p211
(dp212
g6
(dp213
g8
S'slingsby_general_migrations_0002_auto_20141014_0039.html'
p214
sg10
S'slingsby/general/migrations/0002_auto_20141014_0039'
p215
sg12
g13
(g14
g15
NtRp216
(dp217
g18
I1
sg19
I0
sg20
I5
sg21
I0
sg22
I0
sg23
I0
sg24
I0
sbssg25
S'\xa1zb\x0eQ\xd5\xe2g\x90-z\xd5[\x16\xaf\x9a'
p218
ssS'slingsby_general_templatetags_revved_static'
p219
(dp220
g6
(dp221
g8
S'slingsby_general_templatetags_revved_static.html'
p222
sg10
S'slingsby/general/templatetags/revved_static'
p223
sg12
g13
(g14
g15
NtRp224
(dp225
g18
I1
sg19
I0
sg20
I16
sg21
I0
sg22
I0
sg23
I1
sg24
I0
sbssg25
S'2\xc9c\xa1"\xa0F\xcc\x81\xcd\x86\xc7\xd9pU\x1c'
p226
ssS'slingsby_gear_admin'
p227
(dp228
g6
(dp229
g8
S'slingsby_gear_admin.html'
p230
sg10
S'slingsby/gear/admin'
p231
sg12
g13
(g14
g15
NtRp232
(dp233
g18
I1
sg19
I0
sg20
I4
sg21
I0
sg22
I0
sg23
I0
sg24
I0
sbssg25
S'6\xd5\x12\x81\x9d\xec"\xad\xe4L\xc6]\xd2\xcb\x85\xcf'
p234
ssS'slingsby_general_context_processors'
p235
(dp236
g6
(dp237
g8
S'slingsby_general_context_processors.html'
p238
sg10
S'slingsby/general/context_processors'
p239
sg12
g13
(g14
g15
NtRp240
(dp241
g18
I1
sg19
I0
sg20
I15
sg21
I0
sg22
I0
sg23
I0
sg24
I0
sbssg25
S'\xc8\xf5\xe8\xa56/\x04`\xdf\xb6\x98\x19X\xd6\xb3\xbb'
p242
ssS'slingsby_archive___init__'
p243
(dp244
g6
(dp245
g8
S'slingsby_archive___init__.html'
p246
sg10
S'slingsby/archive/__init__'
p247
sg12
g13
(g14
g15
NtRp248
(dp249
g18
I1
sg19
I0
sg20
I0
sg21
I0
sg22
I0
sg23
I0
sg24
I0
sbssg25
S'\xca\xf5\x9f\x7f\x88\xdfa\x831|T\x1d\xbc}\xa5v'
p250
ssS'slingsby_articles_admin'
p251
(dp252
g6
(dp253
g8
S'slingsby_articles_admin.html'
p254
sg10
S'slingsby/articles/admin'
p255
sg12
g13
(g14
g15
NtRp256
(dp257
g18
I1
sg19
I0
sg20
I25
sg21
I0
sg22
I0
sg23
I14
sg24
I0
sbssg25
S'\xfd\xa6+\x0f\xa5\xb1L\xb5\x12\xf3e\xd3\xe1\xd9zE'
p258
ssS'slingsby_quotes_context_processors'
p259
(dp260
g6
(dp261
g8
S'slingsby_quotes_context_processors.html'
p262
sg10
S'slingsby/quotes/context_processors'
p263
sg12
g13
(g14
g15
NtRp264
(dp265
g18
I1
sg19
I0
sg20
I16
sg21
I0
sg22
I0
sg23
I1
sg24
I0
sbssg25
S'^\xef\xbd3fK\xc4\xd3%\x9f\x17gW9h\xe8'
p266
ssS'slingsby_general_widgets'
p267
(dp268
g6
(dp269
g8
S'slingsby_general_widgets.html'
p270
sg10
S'slingsby/general/widgets'
p271
sg12
g13
(g14
g15
NtRp272
(dp273
g18
I1
sg19
I0
sg20
I19
sg21
I0
sg22
I0
sg23
I5
sg24
I0
sbssg25
S'C\xcf\x9f\x10\xed\xb2a=\x1dc\xebTJ*\xa7\\'
p274
ssS'slingsby_general_cache'
p275
(dp276
g6
(dp277
g8
S'slingsby_general_cache.html'
p278
sg10
S'slingsby/general/cache'
p279
sg12
g13
(g14
g15
NtRp280
(dp281
g18
I1
sg19
I0
sg20
I62
sg21
I0
sg22
I0
sg23
I7
sg24
I0
sbssg25
S'\x98{\xda\xc1\x9b\x01[\xa6\xf4\x88\xfc\xdb}\xcbV_'
p282
ssS'slingsby_musikk_migrations___init__'
p283
(dp284
g6
(dp285
g8
S'slingsby_musikk_migrations___init__.html'
p286
sg10
S'slingsby/musikk/migrations/__init__'
p287
sg12
g13
(g14
g15
NtRp288
(dp289
g18
I1
sg19
I0
sg20
I0
sg21
I0
sg22
I0
sg23
I0
sg24
I0
sbssg25
S'\xca\xf5\x9f\x7f\x88\xdfa\x831|T\x1d\xbc}\xa5v'
p290
ssS'slingsby_articles_urls'
p291
(dp292
g6
(dp293
g8
S'slingsby_articles_urls.html'
p294
sg10
S'slingsby/articles/urls'
p295
sg12
g13
(g14
g15
NtRp296
(dp297
g18
I1
sg19
I0
sg20
I7
sg21
I0
sg22
I0
sg23
I1
sg24
I0
sbssg25
S"'\xd6\x9c\x86_\x89m\xf8\x83\xb0\xd2{\xa7]\x8a\xa3"
p298
ssS'slingsby_archive_migrations_0002_auto_20141123_1847'
p299
(dp300
g6
(dp301
g8
S'slingsby_archive_migrations_0002_auto_20141123_1847.html'
p302
sg10
S'slingsby/archive/migrations/0002_auto_20141123_1847'
p303
sg12
g13
(g14
g15
NtRp304
(dp305
g18
I1
sg19
I0
sg20
I6
sg21
I0
sg22
I0
sg23
I0
sg24
I0
sbssg25
S'2)\xed\xe6\xce7\xd4\x86k\\g\xb97\xdc\x19\x82'
p306
ssS'slingsby_archive_urls'
p307
(dp308
g6
(dp309
g8
S'slingsby_archive_urls.html'
p310
sg10
S'slingsby/archive/urls'
p311
sg12
g13
(g14
g15
NtRp312
(dp313
g18
I1
sg19
I0
sg20
I3
sg21
I0
sg22
I0
sg23
I0
sg24
I0
sbssg25
S'\xc8\x13g\x90"lJ\xab\xd41\x10\xad\xa1g\xb4('
p314
ssS'slingsby_general_templatetags_shorten'
p315
(dp316
g6
(dp317
g8
S'slingsby_general_templatetags_shorten.html'
p318
sg10
S'slingsby/general/templatetags/shorten'
p319
sg12
g13
(g14
g15
NtRp320
(dp321
g18
I1
sg19
I0
sg20
I13
sg21
I0
sg22
I0
sg23
I5
sg24
I0
sbssg25
S'\x04\xbaK)\xe7PwRCq\x91\xa1\xe1\t\x95\xbc'
p322
ssS'slingsby_instagram_tests'
p323
(dp324
g6
(dp325
g8
S'slingsby_instagram_tests.html'
p326
sg10
S'slingsby/instagram/tests'
p327
sg12
g13
(g14
g15
NtRp328
(dp329
g18
I1
sg19
I0
sg20
I44
sg21
I0
sg22
I0
sg23
I0
sg24
I0
sbssg25
S"\x00\x9d\x05\x9d\xaa'\x8a;%\xd6r\x82\x18\x85%\x96"
p330
ssS'slingsby_users_bootstrap'
p331
(dp332
g6
(dp333
g8
S'slingsby_users_bootstrap.html'
p334
sg10
S'slingsby/users/bootstrap'
p335
sg12
g13
(g14
g15
NtRp336
(dp337
g18
I1
sg19
I0
sg20
I15
sg21
I0
sg22
I0
sg23
I15
sg24
I0
sbssg25
S"C\xbc8\x11\xfe'\xdc\x86\x0c\x1f\xbf\xec\xa3\xedU9"
p338
ssS'slingsby_general_templatetags_disqus_identifier'
p339
(dp340
g6
(dp341
g8
S'slingsby_general_templatetags_disqus_identifier.html'
p342
sg10
S'slingsby/general/templatetags/disqus_identifier'
p343
sg12
g13
(g14
g15
NtRp344
(dp345
g18
I1
sg19
I0
sg20
I6
sg21
I0
sg22
I0
sg23
I0
sg24
I0
sbssg25
S'^i\xb1r\xe1\xf4\xf5\x0f[\xe9\x0c\xfdJF\x93\xa6'
p346
ssS'slingsby_general_mixins'
p347
(dp348
g6
(dp349
g8
S'slingsby_general_mixins.html'
p350
sg10
S'slingsby/general/mixins'
p351
sg12
g13
(g14
g15
NtRp352
(dp353
g18
I1
sg19
I0
sg20
I15
sg21
I0
sg22
I0
sg23
I1
sg24
I0
sbssg25
S'\xaa\xca\x06\x98\xe4vG\x9f5\xa3\x01B\xf0+\xe3\x13'
p354
ssS'slingsby___init__'
p355
(dp356
g6
(dp357
g8
S'slingsby___init__.html'
p358
sg10
S'slingsby/__init__'
p359
sg12
g13
(g14
g15
NtRp360
(dp361
g18
I1
sg19
I0
sg20
I6
sg21
I0
sg22
I0
sg23
I0
sg24
I0
sbssg25
S'|\xfajj3\xca\xf7\x8b\xc97A.\xeb\xe4\x97\x0b'
p362
ssS'slingsby_urls'
p363
(dp364
g6
(dp365
g8
S'slingsby_urls.html'
p366
sg10
S'slingsby/urls'
p367
sg12
g13
(g14
g15
NtRp368
(dp369
g18
I1
sg19
I0
sg20
I25
sg21
I0
sg22
I0
sg23
I6
sg24
I0
sbssg25
S'n$\r&c2\x90\x92\x05o\x92\xb55\xa2\x8fA'
p370
ssS'slingsby_instagram_bootstrap'
p371
(dp372
g6
(dp373
g8
S'slingsby_instagram_bootstrap.html'
p374
sg10
S'slingsby/instagram/bootstrap'
p375
sg12
g13
(g14
g15
NtRp376
(dp377
g18
I1
sg19
I0
sg20
I8
sg21
I0
sg22
I0
sg23
I8
sg24
I0
sbssg25
S'\xa6\xaf$\xdd+i\xc9\xb3\x91\x7f|,w\x06\xc3\x0b'
p378
ssS'slingsby_events_admin'
p379
(dp380
g6
(dp381
g8
S'slingsby_events_admin.html'
p382
sg10
S'slingsby/events/admin'
p383
sg12
g13
(g14
g15
NtRp384
(dp385
g18
I1
sg19
I0
sg20
I6
sg21
I0
sg22
I0
sg23
I0
sg24
I0
sbssg25
S'Y>\xca\xa1\x88\xa6\xde\xc8\x15\x90\xce\xc8.~\\\x06'
p386
ssS'slingsby_instagram_admin'
p387
(dp388
g6
(dp389
g8
S'slingsby_instagram_admin.html'
p390
sg10
S'slingsby/instagram/admin'
p391
sg12
g13
(g14
g15
NtRp392
(dp393
g18
I1
sg19
I0
sg20
I4
sg21
I0
sg22
I0
sg23
I0
sg24
I0
sbssg25
S'\xcd\x17\x178r\xf7\x80\xae&Oi\r\x086\xd8\x8f'
p394
ssS'slingsby_instagram_models'
p395
(dp396
g6
(dp397
g8
S'slingsby_instagram_models.html'
p398
sg10
S'slingsby/instagram/models'
p399
sg12
g13
(g14
g15
NtRp400
(dp401
g18
I1
sg19
I0
sg20
I31
sg21
I0
sg22
I0
sg23
I2
sg24
I0
sbssg25
S'\xfb\xc6\x91\x93\x7f<r\xe9\xa2\x17\x8fQP\x17\xdc1'
p402
ssS'slingsby_quotes_models'
p403
(dp404
g6
(dp405
g8
S'slingsby_quotes_models.html'
p406
sg10
S'slingsby/quotes/models'
p407
sg12
g13
(g14
g15
NtRp408
(dp409
g18
I1
sg19
I0
sg20
I32
sg21
I0
sg22
I0
sg23
I11
sg24
I0
sbssg25
S's\xae\x9e\xf7\xffk\xa6\xd6\xf0\xb1}\xd5\x19\x8dVa'
p410
ssS'slingsby_articles___init__'
p411
(dp412
g6
(dp413
g8
S'slingsby_articles___init__.html'
p414
sg10
S'slingsby/articles/__init__'
p415
sg12
g13
(g14
g15
NtRp416
(dp417
g18
I1
sg19
I0
sg20
I0
sg21
I0
sg22
I0
sg23
I0
sg24
I0
sbssg25
S'\xca\xf5\x9f\x7f\x88\xdfa\x831|T\x1d\xbc}\xa5v'
p418
ssS'slingsby_settings'
p419
(dp420
g6
(dp421
g8
S'slingsby_settings.html'
p422
sg10
S'slingsby/settings'
p423
sg12
g13
(g14
g15
NtRp424
(dp425
g18
I1
sg19
I0
sg20
I57
sg21
I0
sg22
I0
sg23
I1
sg24
I0
sbssg25
S'\xa5`\xd8\x94F107A\xa9\xab\xf2\x89\\\xd1}'
p426
ssS'slingsby_articles_migrations_0001_initial'
p427
(dp428
g6
(dp429
g8
S'slingsby_articles_migrations_0001_initial.html'
p430
sg10
S'slingsby/articles/migrations/0001_initial'
p431
sg12
g13
(g14
g15
NtRp432
(dp433
g18
I1
sg19
I0
sg20
I6
sg21
I0
sg22
I0
sg23
I0
sg24
I0
sbssg25
S'\xd1\xa3\x96\xd1\xf7\rF\t\xd9N\x8e7\xe8\x14\x84\x08'
p434
ssS'slingsby_quotes_migrations_0001_initial'
p435
(dp436
g6
(dp437
g8
S'slingsby_quotes_migrations_0001_initial.html'
p438
sg10
S'slingsby/quotes/migrations/0001_initial'
p439
sg12
g13
(g14
g15
NtRp440
(dp441
g18
I1
sg19
I0
sg20
I6
sg21
I0
sg22
I0
sg23
I0
sg24
I0
sbssg25
S'J\xda\xb3\xa4\xd2\x06\xb2\xcf\xaa\xa2@\xf0\xcd\xff\x95\x8a'
p442
ssS'slingsby_articles_widgets'
p443
(dp444
g6
(dp445
g8
S'slingsby_articles_widgets.html'
p446
sg10
S'slingsby/articles/widgets'
p447
sg12
g13
(g14
g15
NtRp448
(dp449
g18
I1
sg19
I0
sg20
I8
sg21
I0
sg22
I0
sg23
I0
sg24
I0
sbssg25
S'\x07p_A\xaad\xad\xf98H}\x99\xd8\xe1=\xf4'
p450
ssS'slingsby_events_models'
p451
(dp452
g6
(dp453
g8
S'slingsby_events_models.html'
p454
sg10
S'slingsby/events/models'
p455
sg12
g13
(g14
g15
NtRp456
(dp457
g18
I1
sg19
I0
sg20
I153
sg21
I0
sg22
I0
sg23
I53
sg24
I0
sbssg25
S"5?\x81s\x1b\x0e\xa4\xa7:\t'\xb6\xbd\xc6\xc5*"
p458
ssS'slingsby_instagram___init__'
p459
(dp460
g6
(dp461
g8
S'slingsby_instagram___init__.html'
p462
sg10
S'slingsby/instagram/__init__'
p463
sg12
g13
(g14
g15
NtRp464
(dp465
g18
I1
sg19
I0
sg20
I0
sg21
I0
sg22
I0
sg23
I0
sg24
I0
sbssg25
S'\xca\xf5\x9f\x7f\x88\xdfa\x831|T\x1d\xbc}\xa5v'
p466
ssS'slingsby_musikk_tests'
p467
(dp468
g6
(dp469
g8
S'slingsby_musikk_tests.html'
p470
sg10
S'slingsby/musikk/tests'
p471
sg12
g13
(g14
g15
NtRp472
(dp473
g18
I1
sg19
I0
sg20
I130
sg21
I0
sg22
I0
sg23
I1
sg24
I0
sbssg25
S'\xe7Z\xbcC9I\xfe-\x85\\\x03xz\x8f\xba\xd1'
p474
ssS'slingsby_events_tests'
p475
(dp476
g6
(dp477
g8
S'slingsby_events_tests.html'
p478
sg10
S'slingsby/events/tests'
p479
sg12
g13
(g14
g15
NtRp480
(dp481
g18
I1
sg19
I0
sg20
I29
sg21
I0
sg22
I0
sg23
I0
sg24
I0
sbssg25
S'DU3!\xf3@\x8e\xdb\x8c\xd2\x82\\V\x1a7h'
p482
ssS'slingsby_celery'
p483
(dp484
g6
(dp485
g8
S'slingsby_celery.html'
p486
sg10
S'slingsby/celery'
p487
sg12
g13
(g14
g15
NtRp488
(dp489
g18
I1
sg19
I0
sg20
I8
sg21
I0
sg22
I0
sg23
I0
sg24
I0
sbssg25
S'6\xa3\xe6)\xc2\x80<Z\xb3\x8a\x19,\x8b\x80\xcb\xde'
p490
ssS'slingsby_users_tests'
p491
(dp492
g6
(dp493
g8
S'slingsby_users_tests.html'
p494
sg10
S'slingsby/users/tests'
p495
sg12
g13
(g14
g15
NtRp496
(dp497
g18
I1
sg19
I0
sg20
I19
sg21
I0
sg22
I0
sg23
I0
sg24
I0
sbssg25
S"\t\x84\x9f\xb7v'b\x8b\xc1C\xb4G\x8a\x10\xb7\xbb"
p498
ssS'slingsby_instagram_migrations_0001_initial'
p499
(dp500
g6
(dp501
g8
S'slingsby_instagram_migrations_0001_initial.html'
p502
sg10
S'slingsby/instagram/migrations/0001_initial'
p503
sg12
g13
(g14
g15
NtRp504
(dp505
g18
I1
sg19
I0
sg20
I5
sg21
I0
sg22
I0
sg23
I0
sg24
I0
sbssg25
S'@\x9d]\xc3\xdfnE\x9fa\x9a$>w\x8e\x8f\x90'
p506
ssS'slingsby_general_migrations_0001_initial'
p507
(dp508
g6
(dp509
g8
S'slingsby_general_migrations_0001_initial.html'
p510
sg10
S'slingsby/general/migrations/0001_initial'
p511
sg12
g13
(g14
g15
NtRp512
(dp513
g18
I1
sg19
I0
sg20
I5
sg21
I0
sg22
I0
sg23
I0
sg24
I0
sbssg25
S'\xdck\x84bsB|.Y\xc2\x04\xf5\x03\xab[\xee'
p514
ssS'slingsby_articles_views'
p515
(dp516
g6
(dp517
g8
S'slingsby_articles_views.html'
p518
sg10
S'slingsby/articles/views'
p519
sg12
g13
(g14
g15
NtRp520
(dp521
g18
I1
sg19
I0
sg20
I58
sg21
I0
sg22
I0
sg23
I0
sg24
I0
sbssg25
S'\xce\xf8\x1d\xa2\xb5\xaa\xff\x97\x0b(\xf8\x1c\xf2\xac\xcdY'
p522
ssS'slingsby_instagram_views'
p523
(dp524
g6
(dp525
g8
S'slingsby_instagram_views.html'
p526
sg10
S'slingsby/instagram/views'
p527
sg12
g13
(g14
g15
NtRp528
(dp529
g18
I1
sg19
I0
sg20
I13
sg21
I0
sg22
I0
sg23
I0
sg24
I0
sbssg25
S'0<s\x1e\tEb\xcb\xa4\xb5g\xee\xc7n\xf8\t'
p530
ssS'slingsby_musikk_migrations_0002_auto_20141030_1532'
p531
(dp532
g6
(dp533
g8
S'slingsby_musikk_migrations_0002_auto_20141030_1532.html'
p534
sg10
S'slingsby/musikk/migrations/0002_auto_20141030_1532'
p535
sg12
g13
(g14
g15
NtRp536
(dp537
g18
I1
sg19
I0
sg20
I5
sg21
I0
sg22
I0
sg23
I0
sg24
I0
sbssg25
S'\xa6\xd8T\xfd\x16\xc8\x80\xb2{\xefY\xf2\xb0\xad\xc4\x1a'
p538
ssS'slingsby_events_migrations_0001_initial'
p539
(dp540
g6
(dp541
g8
S'slingsby_events_migrations_0001_initial.html'
p542
sg10
S'slingsby/events/migrations/0001_initial'
p543
sg12
g13
(g14
g15
NtRp544
(dp545
g18
I1
sg19
I0
sg20
I5
sg21
I0
sg22
I0
sg23
I0
sg24
I0
sbssg25
S'\xab\x13P\xfdc\xb9\xf2\xac\r\xb7\x92\xd1\t\xdd\xa5\xc9'
p546
ssS'slingsby_general_utils'
p547
(dp548
g6
(dp549
g8
S'slingsby_general_utils.html'
p550
sg10
S'slingsby/general/utils'
p551
sg12
g13
(g14
g15
NtRp552
(dp553
g18
I1
sg19
I0
sg20
I91
sg21
I0
sg22
I0
sg23
I33
sg24
I0
sbssg25
S'\x86D)\x8fS?\xfd\x1d\xfb\xaa\xfa-\xed:&`'
p554
ssS'slingsby_archive_bootstrap'
p555
(dp556
g6
(dp557
g8
S'slingsby_archive_bootstrap.html'
p558
sg10
S'slingsby/archive/bootstrap'
p559
sg12
g13
(g14
g15
NtRp560
(dp561
g18
I1
sg19
I0
sg20
I21
sg21
I0
sg22
I0
sg23
I21
sg24
I0
sbssg25
S'I\x8an\xa79\x8d\x08]L>?\x8bZ\xc6\x85\xc4'
p562
ssS'slingsby_musikk_bootstrap'
p563
(dp564
g6
(dp565
g8
S'slingsby_musikk_bootstrap.html'
p566
sg10
S'slingsby/musikk/bootstrap'
p567
sg12
g13
(g14
g15
NtRp568
(dp569
g18
I1
sg19
I0
sg20
I10
sg21
I0
sg22
I0
sg23
I10
sg24
I0
sbssg25
S'\xca0\xef\xe4\x87\xa0\x17\xdb\xc9D\x0c\xccg\x02\xa6\xd9'
p570
ssS'slingsby_archive_tasks'
p571
(dp572
g6
(dp573
g8
S'slingsby_archive_tasks.html'
p574
sg10
S'slingsby/archive/tasks'
p575
sg12
g13
(g14
g15
NtRp576
(dp577
g18
I1
sg19
I0
sg20
I48
sg21
I0
sg22
I0
sg23
I6
sg24
I0
sbssg25
S'\xe9\x18\xee\xf8\x1b.\xe0L\xdf\xe9\x0f\x1f"k\xd1\xfc'
p578
ssS'slingsby_general_models'
p579
(dp580
g6
(dp581
g8
S'slingsby_general_models.html'
p582
sg10
S'slingsby/general/models'
p583
sg12
g13
(g14
g15
NtRp584
(dp585
g18
I1
sg19
I0
sg20
I11
sg21
I0
sg22
I0
sg23
I1
sg24
I0
sbssg25
S"\xadNI\xd7O~\xe6'\x81\x84+\x87C\xca\x1c\xc0"
p586
ssS'slingsby_archive_tests'
p587
(dp588
g6
(dp589
g8
S'slingsby_archive_tests.html'
p590
sg10
S'slingsby/archive/tests'
p591
sg12
g13
(g14
g15
NtRp592
(dp593
g18
I1
sg19
I0
sg20
I83
sg21
I0
sg22
I0
sg23
I0
sg24
I0
sbssg25
S'y\xac\x80\xdf4\xa5\x9e\x9aAId9\xdf\xd6\xfd\x18'
p594
ssS'slingsby_gear_views'
p595
(dp596
g6
(dp597
g8
S'slingsby_gear_views.html'
p598
sg10
S'slingsby/gear/views'
p599
sg12
g13
(g14
g15
NtRp600
(dp601
g18
I1
sg19
I0
sg20
I31
sg21
I0
sg22
I0
sg23
I15
sg24
I0
sbssg25
S'\x97\xd0|\xf8_\x0eh\xa2Vg\xd1\x15|\\\x82\xa4'
p602
ssS'slingsby_quotes_views'
p603
(dp604
g6
(dp605
g8
S'slingsby_quotes_views.html'
p606
sg10
S'slingsby/quotes/views'
p607
sg12
g13
(g14
g15
NtRp608
(dp609
g18
I1
sg19
I0
sg20
I76
sg21
I0
sg22
I0
sg23
I48
sg24
I0
sbssg25
S'8\xb7\xbfE&C\xc4\x1f\xaamK\x8b\x93\xc1L\t'
p610
ssS'slingsby_quotes___init__'
p611
(dp612
g6
(dp613
g8
S'slingsby_quotes___init__.html'
p614
sg10
S'slingsby/quotes/__init__'
p615
sg12
g13
(g14
g15
NtRp616
(dp617
g18
I1
sg19
I0
sg20
I0
sg21
I0
sg22
I0
sg23
I0
sg24
I0
sbssg25
S'\xca\xf5\x9f\x7f\x88\xdfa\x831|T\x1d\xbc}\xa5v'
p618
ssS'slingsby_archive_migrations___init__'
p619
(dp620
g6
(dp621
g8
S'slingsby_archive_migrations___init__.html'
p622
sg10
S'slingsby/archive/migrations/__init__'
p623
sg12
g13
(g14
g15
NtRp624
(dp625
g18
I1
sg19
I0
sg20
I0
sg21
I0
sg22
I0
sg23
I0
sg24
I0
sbssg25
S'\xca\xf5\x9f\x7f\x88\xdfa\x831|T\x1d\xbc}\xa5v'
p626
ssS'slingsby_musikk_urls'
p627
(dp628
g6
(dp629
g8
S'slingsby_musikk_urls.html'
p630
sg10
S'slingsby/musikk/urls'
p631
sg12
g13
(g14
g15
NtRp632
(dp633
g18
I1
sg19
I0
sg20
I5
sg21
I0
sg22
I0
sg23
I0
sg24
I0
sbssg25
S"E\x83\xff\xae^\xa3'J\xf5\xeeH\xef\x11\xf5\xfc$"
p634
ssS'slingsby_general_management___init__'
p635
(dp636
g6
(dp637
g8
S'slingsby_general_management___init__.html'
p638
sg10
S'slingsby/general/management/__init__'
p639
sg12
g13
(g14
g15
NtRp640
(dp641
g18
I1
sg19
I0
sg20
I0
sg21
I0
sg22
I0
sg23
I0
sg24
I0
sbssg25
S'\xca\xf5\x9f\x7f\x88\xdfa\x831|T\x1d\xbc}\xa5v'
p642
ssS'slingsby_musikk_tasks'
p643
(dp644
g6
(dp645
g8
S'slingsby_musikk_tasks.html'
p646
sg10
S'slingsby/musikk/tasks'
p647
sg12
g13
(g14
g15
NtRp648
(dp649
g18
I1
sg19
I0
sg20
I94
sg21
I0
sg22
I0
sg23
I9
sg24
I0
sbssg25
S'\xab\xbb\xce\xff\xd0S?\x98\xd3\x05\x1e\x99u\xca/\xa1'
p650
ssS'slingsby_users_urls'
p651
(dp652
g6
(dp653
g8
S'slingsby_users_urls.html'
p654
sg10
S'slingsby/users/urls'
p655
sg12
g13
(g14
g15
NtRp656
(dp657
g18
I1
sg19
I0
sg20
I4
sg21
I0
sg22
I0
sg23
I0
sg24
I0
sbssg25
S'M\xe6QI\xfa\x1e\xcaBn\x83nT\xd1R\xbb\x7f'
p658
ssS'slingsby_general_admin'
p659
(dp660
g6
(dp661
g8
S'slingsby_general_admin.html'
p662
sg10
S'slingsby/general/admin'
p663
sg12
g13
(g14
g15
NtRp664
(dp665
g18
I1
sg19
I0
sg20
I3
sg21
I0
sg22
I0
sg23
I0
sg24
I0
sbssg25
S'\xf3\t=+!\xff\xd0\xe7\xc6\x96\x0b>81\xd2 '
p666
ssS'slingsby_general_middleware'
p667
(dp668
g6
(dp669
g8
S'slingsby_general_middleware.html'
p670
sg10
S'slingsby/general/middleware'
p671
sg12
g13
(g14
g15
NtRp672
(dp673
g18
I1
sg19
I0
sg20
I24
sg21
I0
sg22
I0
sg23
I0
sg24
I0
sbssg25
S'_\x84\x86{K\x90X\x8c\xf9Cz\xf7\x03\x13Ra'
p674
ssS'slingsby_articles_models'
p675
(dp676
g6
(dp677
g8
S'slingsby_articles_models.html'
p678
sg10
S'slingsby/articles/models'
p679
sg12
g13
(g14
g15
NtRp680
(dp681
g18
I1
sg19
I0
sg20
I104
sg21
I0
sg22
I0
sg23
I30
sg24
I0
sbssg25
S'\xdfZz\xf7\xd7{7{_\xd4A\xe3\xad\xe72r'
p682
ssS'slingsby_musikk_migrations_0001_initial'
p683
(dp684
g6
(dp685
g8
S'slingsby_musikk_migrations_0001_initial.html'
p686
sg10
S'slingsby/musikk/migrations/0001_initial'
p687
sg12
g13
(g14
g15
NtRp688
(dp689
g18
I1
sg19
I0
sg20
I7
sg21
I0
sg22
I0
sg23
I0
sg24
I0
sbssg25
S'UI\xd1\xc0?\x1c\xfd\xb4\xa2{\xb8\xc2\xbf\x9cr\x0c'
p690
ssS'slingsby_quotes_migrations_0002_auto_20141030_1617'
p691
(dp692
g6
(dp693
g8
S'slingsby_quotes_migrations_0002_auto_20141030_1617.html'
p694
sg10
S'slingsby/quotes/migrations/0002_auto_20141030_1617'
p695
sg12
g13
(g14
g15
NtRp696
(dp697
g18
I1
sg19
I0
sg20
I5
sg21
I0
sg22
I0
sg23
I0
sg24
I0
sbssg25
S'\x13q\x11[\xdb\xd9\x04\x95#`\xb7\xf4t\xc7\xc15'
p698
ssS'slingsby_general_templatetags___init__'
p699
(dp700
g6
(dp701
g8
S'slingsby_general_templatetags___init__.html'
p702
sg10
S'slingsby/general/templatetags/__init__'
p703
sg12
g13
(g14
g15
NtRp704
(dp705
g18
I1
sg19
I0
sg20
I0
sg21
I0
sg22
I0
sg23
I0
sg24
I0
sbssg25
S'\xca\xf5\x9f\x7f\x88\xdfa\x831|T\x1d\xbc}\xa5v'
p706
ssS'slingsby_instagram_tasks'
p707
(dp708
g6
(dp709
g8
S'slingsby_instagram_tasks.html'
p710
sg10
S'slingsby/instagram/tasks'
p711
sg12
g13
(g14
g15
NtRp712
(dp713
g18
I1
sg19
I0
sg20
I28
sg21
I0
sg22
I0
sg23
I0
sg24
I0
sbssg25
S'\xa0\xee\xce\x18\x1f\x04\x0f\xd5\x97\xab\xb8\x8c\xd4*o\xf8'
p714
ssS'slingsby_archive_admin'
p715
(dp716
g6
(dp717
g8
S'slingsby_archive_admin.html'
p718
sg10
S'slingsby/archive/admin'
p719
sg12
g13
(g14
g15
NtRp720
(dp721
g18
I1
sg19
I0
sg20
I7
sg21
I0
sg22
I0
sg23
I0
sg24
I0
sbssg25
S'\xdb\r\x0cD\xa6)\xa3W&j\xa1\xd4\x15\x195`'
p722
ssS'slingsby_articles_migrations___init__'
p723
(dp724
g6
(dp725
g8
S'slingsby_articles_migrations___init__.html'
p726
sg10
S'slingsby/articles/migrations/__init__'
p727
sg12
g13
(g14
g15
NtRp728
(dp729
g18
I1
sg19
I0
sg20
I0
sg21
I0
sg22
I0
sg23
I0
sg24
I0
sbssg25
S'\xca\xf5\x9f\x7f\x88\xdfa\x831|T\x1d\xbc}\xa5v'
p730
ssS'slingsby_users_admin'
p731
(dp732
g6
(dp733
g8
S'slingsby_users_admin.html'
p734
sg10
S'slingsby/users/admin'
p735
sg12
g13
(g14
g15
NtRp736
(dp737
g18
I1
sg19
I0
sg20
I0
sg21
I0
sg22
I0
sg23
I0
sg24
I0
sbssg25
S'\xca\xf5\x9f\x7f\x88\xdfa\x831|T\x1d\xbc}\xa5v'
p738
ssS'slingsby_quotes_admin'
p739
(dp740
g6
(dp741
g8
S'slingsby_quotes_admin.html'
p742
sg10
S'slingsby/quotes/admin'
p743
sg12
g13
(g14
g15
NtRp744
(dp745
g18
I1
sg19
I0
sg20
I7
sg21
I0
sg22
I0
sg23
I1
sg24
I0
sbssg25
S'\x15\x81V\x83J\xbd\xed\xfbuC\xc9\xc7/\xe0\x94\xae'
p746
ssS'slingsby_archive_migrations_0001_initial'
p747
(dp748
g6
(dp749
g8
S'slingsby_archive_migrations_0001_initial.html'
p750
sg10
S'slingsby/archive/migrations/0001_initial'
p751
sg12
g13
(g14
g15
NtRp752
(dp753
g18
I1
sg19
I0
sg20
I6
sg21
I0
sg22
I0
sg23
I0
sg24
I0
sbssg25
S'\x9a\xe9\x05\xe1\xfbT\xb5\x07\xa2+Y9g\x86\xfb\xf7'
p754
ssS'slingsby_general___init__'
p755
(dp756
g6
(dp757
g8
S'slingsby_general___init__.html'
p758
sg10
S'slingsby/general/__init__'
p759
sg12
g13
(g14
g15
NtRp760
(dp761
g18
I1
sg19
I0
sg20
I26
sg21
I0
sg22
I0
sg23
I12
sg24
I0
sbssg25
S'-K8~,\xfa\x8f~\x05\xf1eM\x00\x93\xb9\x88'
p762
ssS'slingsby_users___init__'
p763
(dp764
g6
(dp765
g8
S'slingsby_users___init__.html'
p766
sg10
S'slingsby/users/__init__'
p767
sg12
g13
(g14
g15
NtRp768
(dp769
g18
I1
sg19
I0
sg20
I1
sg21
I8
sg22
I0
sg23
I0
sg24
I0
sbssg25
S'\xe5JPr\x1b\xf0~\xd5\xc7\xbc\x15\xa8\xf7W{I'
p770
ssS'slingsby_archive_views'
p771
(dp772
g6
(dp773
g8
S'slingsby_archive_views.html'
p774
sg10
S'slingsby/archive/views'
p775
sg12
g13
(g14
g15
NtRp776
(dp777
g18
I1
sg19
I0
sg20
I49
sg21
I0
sg22
I0
sg23
I8
sg24
I0
sbssg25
S'\xb3\xd1\x99]\xf6\\\x16\xa8\xee\xee\xf1\xe8\x01\xa1S\xdc'
p778
ssS'slingsby_musikk_models'
p779
(dp780
g6
(dp781
g8
S'slingsby_musikk_models.html'
p782
sg10
S'slingsby/musikk/models'
p783
sg12
g13
(g14
g15
NtRp784
(dp785
g18
I1
sg19
I0
sg20
I54
sg21
I0
sg22
I0
sg23
I6
sg24
I0
sbssg25
S'\x86y\x8a>\x03\xcep%\x02#\xaaO\xf2\xaf&\x02'
p786
ssS'slingsby_articles_tests'
p787
(dp788
g6
(dp789
g8
S'slingsby_articles_tests.html'
p790
sg10
S'slingsby/articles/tests'
p791
sg12
g13
(g14
g15
NtRp792
(dp793
g18
I1
sg19
I0
sg20
I54
sg21
I0
sg22
I0
sg23
I0
sg24
I0
sbssg25
S'~\x88\x1cN\xb0\xc6s\xfd\xc40\xa8\x968g\x01\x83'
p794
ssS'slingsby_quotes_bootstrap'
p795
(dp796
g6
(dp797
g8
S'slingsby_quotes_bootstrap.html'
p798
sg10
S'slingsby/quotes/bootstrap'
p799
sg12
g13
(g14
g15
NtRp800
(dp801
g18
I1
sg19
I0
sg20
I7
sg21
I0
sg22
I0
sg23
I7
sg24
I0
sbssg25
S'\x97\x8dS\xa6S\x95x\xbbD\xc1s#\xbe>T~'
p802
ssS'slingsby_musikk_admin'
p803
(dp804
g6
(dp805
g8
S'slingsby_musikk_admin.html'
p806
sg10
S'slingsby/musikk/admin'
p807
sg12
g13
(g14
g15
NtRp808
(dp809
g18
I1
sg19
I0
sg20
I17
sg21
I0
sg22
I0
sg23
I5
sg24
I0
sbssg25
S'Ne\xda\xce\xed\x1c\x01\xe1\xb2\xf5\xc8\xae\xda\xc3\xef\x84'
p810
ssS'slingsby_archive_models'
p811
(dp812
g6
(dp813
g8
S'slingsby_archive_models.html'
p814
sg10
S'slingsby/archive/models'
p815
sg12
g13
(g14
g15
NtRp816
(dp817
g18
I1
sg19
I0
sg20
I133
sg21
I0
sg22
I0
sg23
I12
sg24
I0
sbssg25
S'L\xaa\xb9\xdc,;%\xb2\xf8p\x07\x07\x1d\xe0\x92a'
p818
sssS'version'
p819
S'3.7.1'
p820
sS'settings'
p821
S'z}A\x943\xf5x\xb9\x19ll\xbd\xcf{Hk'
p822
sS'format'
p823
I1
s.